(dp1
S'all'
p2
(lp3
I1
aI0
aI147
asVentri
p4
(lp5
I1
aI130928
aI148
asVconsider
p6
(lp7
I1
aI101601
aI148
asS'month'
p8
(lp9
I1
aI62424
aI147
asS'four'
p10
(lp11
I1
aI109620
aI148
asVgrain/oilse
p12
(lp13
I1
aI62764
aI147
asVseali
p14
(lp15
I1
aI101943
aI148
asS'43.4'
p16
(lp17
I1
aI113095
aI148
asVgo
p18
(lp19
I1
aI2040
aI147
asVfollow
p20
(lp21
I2
aI49572
aI193
asS'37.4'
p22
(lp23
I1
aI63274
aI147
asS'milk'
p24
(lp25
I1
aI122036
aI148
asVmiddl
p26
(lp27
I1
aI102285
aI148
asVdairi
p28
(lp29
I1
aI123575
aI148
asS'aug'
p30
(lp31
I1
aI9876
aI147
asVharvest
p32
(lp33
I1
aI32239
aI147
asS'1.19'
p34
(lp35
I1
aI97604
aI148
asS'to'
p36
(lp37
I6
aI4257
aI394
asVestim
p38
(lp39
I1
aI16699
aI147
asS'340'
p40
(lp41
I1
aI4716
aI147
asS'under'
p42
(lp43
I2
aI30599
aI194
asVbuyer
p44
(lp45
I1
aI10896
aI147
asS'45.1'
p46
(lp47
I1
aI64688
aI147
asVsunflowerse
p48
(lp49
I1
aI65028
aI147
asVfall
p50
(lp51
I1
aI119642
aI148
asS'1,875'
p52
(lp53
I1
aI44395
aI147
asS'ticket'
p54
(lp55
I1
aI84839
aI148
asS'1,870'
p56
(lp57
I1
aI7893
aI147
asS'298.5'
p58
(lp59
I1
aI112753
aI148
asVadministr
p60
(lp61
I1
aI103250
aI148
asVlevel
p62
(lp63
I2
aI8573
aI193
asS'--'
p64
(lp65
I1
aI51889
aI147
asS'ryan'
p66
(lp67
I1
aI120155
aI148
asS'frozen'
p68
(lp69
I1
aI120497
aI148
asS'2.28'
p70
(lp71
I1
aI15156
aI147
asS'2.27'
p72
(lp73
I1
aI10046
aI147
asS'bahia'
p74
(lp75
I1
aI10216
aI147
asVapprais
p76
(lp77
I1
aI103763
aI148
asS'55.8'
p78
(lp79
I1
aI66048
aI147
asS'3.15'
p80
(lp81
I1
aI52229
aI147
asS'crop'
p82
(lp83
I2
aI11801
aI193
asS'tex'
p84
(lp85
I1
aI85920
aI148
asVrate
p86
(lp87
I1
aI52399
aI147
asVcost
p88
(lp89
I1
aI86091
aI148
asVport
p90
(lp91
I1
aI13218
aI147
asVcurrenc
p92
(lp93
I1
aI14646
aI147
asVcurrent
p94
(lp95
I3
aI15729
aI245
asVconduct
p96
(lp97
I1
aI104728
aI148
asS'new'
p98
(lp99
I1
aI17093
aI147
asS'net'
p100
(lp101
I4
aI99258
aI299
asS'2,285,000'
p102
(lp103
I1
aI111898
aI148
asS'told'
p104
(lp105
I1
aI120839
aI148
asVinvolv
p106
(lp107
I1
aI87569
aI148
asVderiv
p108
(lp109
I1
aI123062
aI148
asVgener
p110
(lp111
I1
aI87001
aI148
asS'n.a'
p112
(lp113
I1
aI54153
aI147
asVmeet
p114
(lp115
I1
aI82559
aI147
asS'100'
p116
(lp117
I1
aI54833
aI147
asS'strong'
p118
(lp119
I1
aI123746
aI148
asVsinc
p120
(lp121
I1
aI19644
aI147
asVconvert
p122
(lp123
I1
aI20500
aI147
asS'zone'
p124
(lp125
I1
aI2890
aI147
asS'0.39'
p126
(lp127
I1
aI21125
aI147
asS'31'
p128
(lp129
I1
aI113437
aI148
asS'30'
p130
(lp131
I1
aI123917
aI148
asVtechnolog
p132
(lp133
I1
aI87740
aI148
asS'36'
p134
(lp135
I1
aI124259
aI148
asS'35'
p136
(lp137
I1
aI6419
aI147
asS'34'
p138
(lp139
I2
aI100405
aI195
asVdri
p140
(lp141
I1
aI22378
aI147
asVcredit
p142
(lp143
I1
aI114121
aI148
asS'corp'
p144
(lp145
I1
aI123404
aI148
asVchang
p146
(lp147
I1
aI88082
aI148
asVdepart
p148
(lp149
I1
aI56077
aI147
asS'67.1'
p150
(lp151
I1
aI105638
aI148
asVdeclin
p152
(lp153
I1
aI105809
aI148
asS'apr'
p154
(lp155
I1
aI68598
aI147
asVprefer
p156
(lp157
I1
aI108936
aI148
asS'elgin'
p158
(lp159
I1
aI128021
aI148
asS'569.3'
p160
(lp161
I1
aI109278
aI148
asS'182.4'
p162
(lp163
I1
aI69108
aI147
asS'soybean'
p164
(lp165
I1
aI69278
aI147
asS'1st'
p166
(lp167
I1
aI106206
aI148
asS'total'
p168
(lp169
I3
aI5056
aI244
asS'market'
p170
(lp171
I1
aI89047
aI148
asS'2,325'
p172
(lp173
I1
aI25887
aI147
asS'feb'
p174
(lp175
I1
aI69618
aI147
asS'would'
p176
(lp177
I4
aI26227
aI298
asS'nine'
p178
(lp179
I2
aI114518
aI195
asVregist
p180
(lp181
I1
aI26968
aI147
asS'two'
p182
(lp183
I1
aI110872
aI148
asVy-dlr
p184
(lp185
I1
aI55003
aI147
asS'few'
p186
(lp187
I1
aI27817
aI147
asS'doubt'
p188
(lp189
I1
aI27987
aI147
asS'call'
p190
(lp191
I1
aI57725
aI147
asVasset
p192
(lp193
I1
aI98061
aI148
asS'6'
(lp194
I1
aI57895
aI147
asVincreas
p195
(lp196
I2
aI81252
aI194
asS'prev'
p197
(lp198
I1
aI69788
aI147
asS'midday'
p199
(lp200
I1
aI29069
aI147
asS'479.7'
p201
(lp202
I1
aI98403
aI148
asVcapit
p203
(lp204
I2
aI81027
aI194
asVregistr
p205
(lp206
I1
aI72673
aI147
asS'1,780'
p207
(lp208
I1
aI44565
aI147
asS'tax'
p209
(lp210
I2
aI96059
aI195
asVhundr
p211
(lp212
I1
aI30429
aI147
asVrelat
p213
(lp214
I1
aI106548
aI148
asS'41.1'
p215
(lp216
I1
aI112411
aI148
asS'V'
(lp217
I1
aI49062
aI147
asS'five-day'
p218
(lp219
I1
aI58405
aI147
asVcompani
p220
(lp221
I4
aI81477
aI298
asVhold
p222
(lp223
I1
aI90983
aI148
asS'iii'
p224
(lp225
I1
aI58575
aI147
asVrestor
p226
(lp227
I1
aI33144
aI147
asS'2.65'
p228
(lp229
I1
aI58915
aI147
asS'61.5'
p230
(lp231
I1
aI72163
aI147
asS'61.8'
p232
(lp233
I1
aI67408
aI147
asS'dec'
p234
(lp235
I1
aI34910
aI147
asVfarmer-own
p236
(lp237
I1
aI55513
aI147
asS'control'
p238
(lp239
I1
aI88479
aI148
asS'kenneth'
p240
(lp241
I1
aI128192
aI148
asS'uruguay'
p242
(lp243
I1
aI36104
aI147
asS'comissaria'
p244
(lp245
I1
aI36899
aI147
asVshare
p246
(lp247
I4
aI80225
aI298
asVtag
p248
(lp249
I1
aI92064
aI148
asS'occur'
p250
(lp251
I1
aI92235
aI148
asS'51.6'
p252
(lp253
I1
aI110133
aI148
asS'51.7'
p254
(lp255
I1
aI111727
aI148
asS'4,340'
p256
(lp257
I1
aI40031
aI147
asVend
p258
(lp259
I3
aI40201
aI245
asS'4,345'
p260
(lp261
I1
aI40486
aI147
asS'reuter'
p262
(lp263
I1
aI73523
aI147
asS'1'
(lp264
I1
aI78857
aI147
asS'how'
p265
(lp266
I1
aI41446
aI147
asS'larsen'
p267
(lp268
I1
aI129389
aI148
asS'fourth'
p269
(lp270
I1
aI129731
aI148
asS'stock'
p271
(lp272
I3
aI82729
aI245
asVproduct
p273
(lp274
I3
aI74258
aI244
asS'mar'
p275
(lp276
I1
aI74542
aI147
asS'sedio'
p277
(lp278
I1
aI92406
aI148
asS'may'
p279
(lp280
I4
aI42860
aI297
asS'after'
p281
(lp282
I4
aI19814
aI297
asS'spot'
p283
(lp284
I1
aI43885
aI147
asVreflect
p285
(lp286
I1
aI61404
aI147
asVrang
p287
(lp288
I1
aI124601
aI148
asS'4th'
p289
(lp290
I3
aI96285
aI246
asVdirector
p291
(lp292
I1
aI80572
aI147
asS'155,221'
p293
(lp294
I1
aI44905
aI147
asVaverag
p295
(lp296
I1
aI61574
aI147
asS'a'
(lp297
I5
aI45245
aI346
asVcircumst
p298
(lp299
I1
aI94457
aI148
asVpractic
p300
(lp301
I1
aI46390
aI147
asS'light'
p302
(lp303
I1
aI46730
aI147
asS'5,086,000'
p304
(lp305
I1
aI112582
aI148
asS'or'
p306
(lp307
I3
aI101315
aI246
asVissu
p308
(lp309
I1
aI108423
aI148
asVdeposit
p310
(lp311
I1
aI100802
aI148
asVenter
p312
(lp313
I1
aI61914
aI147
asVexclus
p314
(lp315
I1
aI94799
aI148
asS'houston'
p316
(lp317
I1
aI83014
aI148
asS'six'
p318
(lp319
I1
aI110475
aI148
asS'help'
p320
(lp321
I1
aI83185
aI148
asVanticip
p322
(lp323
I1
aI117761
aI148
asS'2,227,000'
p324
(lp325
I1
aI108765
aI148
asS'over'
p326
(lp327
I1
aI680
aI147
asVmove
p328
(lp329
I1
aI83356
aI148
asVapprov
p330
(lp331
I1
aI77257
aI147
asVbecaus
p332
(lp333
I1
aI101772
aI148
asS'trade'
p334
(lp335
I1
aI39351
aI147
asS'held'
p336
(lp337
I1
aI1360
aI147
asS'6.4'
p338
(lp339
I1
aI1530
aI147
asS'through'
p340
(lp341
I1
aI49402
aI147
asS'6.2'
p342
(lp343
I1
aI1700
aI147
asS'japan'
p344
(lp345
I1
aI118103
aI148
asS'still'
p346
(lp347
I1
aI2210
aI147
asS'1.92'
p348
(lp349
I1
aI49796
aI147
asS'6.8'
p350
(lp351
I1
aI63444
aI147
asS'25'
p352
(lp353
I2
aI49966
aI193
asS'27'
p354
(lp355
I1
aI2720
aI147
asVlb
p356
(lp357
I1
aI50360
aI147
asS'fit'
p358
(lp359
I1
aI11236
aI147
asS'23'
p360
(lp361
I2
aI50530
aI193
asS'temporao'
p362
(lp363
I1
aI23058
aI147
asS'218.5'
p364
(lp365
I1
aI63784
aI147
asS'28'
p366
(lp367
I2
aI24418
aI194
asS'50,000'
p368
(lp369
I1
aI85010
aI148
asS'pct'
p370
(lp371
I3
aI84040
aI246
asVmaiz
p372
(lp373
I1
aI63954
aI147
asS'late'
p374
(lp375
I3
aI3972
aI245
asS'whether'
p376
(lp377
I1
aI127166
aI148
asS'lt'
p378
(lp379
I7
aI79027
aI445
asVfarmer
p380
(lp381
I1
aI4886
aI147
asS'argentina'
p382
(lp383
I1
aI5340
aI147
asS'5.54'
p384
(lp385
I1
aI51094
aI147
asS'good'
p386
(lp387
I1
aI5795
aI147
asVfood
p388
(lp389
I1
aI119300
aI148
asVoveral
p390
(lp391
I1
aI119471
aI148
asVearn
p392
(lp393
I2
aI102853
aI195
asVnation
p394
(lp395
I1
aI51264
aI147
asVconsign
p396
(lp397
I1
aI6874
aI147
asS'not'
p398
(lp399
I3
aI7438
aI245
asS'canada'
p400
(lp401
I1
aI121523
aI148
asS'now'
p402
(lp403
I1
aI7723
aI147
asS'bread'
p404
(lp405
I1
aI65368
aI147
asS'14.5'
p406
(lp407
I1
aI65538
aI147
asVname
p408
(lp409
I1
aI8063
aI147
asS'1.06'
p410
(lp411
I1
aI39521
aI147
asS'24.5'
p412
(lp413
I1
aI65708
aI147
asS'4,415'
p414
(lp415
I1
aI8797
aI147
asVfebruari
p416
(lp417
I4
aI9137
aI296
asS'1,655.8'
p418
(lp419
I1
aI75447
aI147
asS'3.08'
p420
(lp421
I1
aI116167
aI148
asVjanuari
p422
(lp423
I2
aI9482
aI193
asS'went'
p424
(lp425
I1
aI9706
aI147
asS'higher'
p426
(lp427
I1
aI103592
aI148
asVmean
p428
(lp429
I1
aI10386
aI147
asVcontinu
p430
(lp431
I2
aI11576
aI194
asVsubproduct
p432
(lp433
I1
aI66388
aI147
asVexpect
p434
(lp435
I2
aI35250
aI194
asS'year'
p436
(lp437
I5
aI12474
aI347
asV3.25-i
p438
(lp439
I1
aI59479
aI147
asS'superior+'
p440
(lp441
I1
aI12878
aI147
asVcommiss
p442
(lp443
I1
aI13048
aI147
asS'20.0'
p444
(lp445
I1
aI67068
aI147
asS'2.34'
p446
(lp447
I1
aI52909
aI147
asS'20.4'
p448
(lp449
I1
aI75277
aI147
asS'matrix'
p450
(lp451
I1
aI86262
aI148
asVprofit
p452
(lp453
I2
aI104502
aI195
asVrev
p454
(lp455
I2
aI110646
aI195
asS'cwt'
p456
(lp457
I1
aI53249
aI147
asVpublish
p458
(lp459
I1
aI48892
aI147
asS'barley'
p460
(lp461
I1
aI53589
aI147
asS'shipment'
p462
(lp463
I2
aI16869
aI193
asVextraordinari
p464
(lp465
I1
aI95717
aI148
asS'earlier'
p466
(lp467
I2
aI43660
aI194
asS'u.s.'
p468
(lp469
I2
aI17263
aI193
asS'3.07'
p470
(lp471
I1
aI116338
aI148
asS'20'
p472
(lp473
I1
aI118445
aI148
asS'york'
p474
(lp475
I1
aI18794
aI147
asS'ohio'
p476
(lp477
I1
aI103421
aI148
asVreleas
p478
(lp479
I1
aI54663
aI147
asVhand
p480
(lp481
I1
aI44055
aI147
asS'II'
p482
(lp483
I1
aI55343
aI147
asVshipper
p484
(lp485
I1
aI18964
aI147
asS'132,000'
p486
(lp487
I1
aI97433
aI148
asS'1981'
p488
(lp489
I1
aI57385
aI147
asS'997.1'
p490
(lp491
I1
aI117419
aI148
asS'ltd'
p492
(lp493
I1
aI123233
aI148
asVtechnolgi
p494
(lp495
I1
aI94286
aI148
asS'first'
p496
(lp497
I1
aI105467
aI148
asVoper
p498
(lp499
I2
aI88253
aI195
asS'337.3'
p500
(lp501
I1
aI115996
aI148
asS'major'
p502
(lp503
I1
aI117932
aI148
asS'note'
p504
(lp505
I3
aI97775
aI246
asVcarri
p506
(lp507
I1
aI95888
aI148
asVqualiti
p508
(lp509
I1
aI24643
aI147
asS'one'
p510
(lp511
I2
aI88650
aI195
asVacquisit
p512
(lp513
I2
aI105980
aI195
asS'1987/88'
p514
(lp515
I1
aI25377
aI147
asVvote
p516
(lp517
I1
aI77427
aI147
asS'open'
p518
(lp519
I1
aI25717
aI147
asS'feedgrain'
p520
(lp521
I1
aI57045
aI147
asS'442,000'
p522
(lp523
I1
aI111385
aI148
asVlicens
p524
(lp525
I1
aI125285
aI148
asVsystem
p526
(lp527
I1
aI89389
aI148
asS'their'
p528
(lp529
I2
aI26574
aI193
asVcumul
p530
(lp531
I1
aI31784
aI147
asS'too'
p532
(lp533
I1
aI125798
aI148
asVtermin
p534
(lp535
I1
aI89731
aI148
asS'final'
p536
(lp537
I1
aI28899
aI147
asS'15.0'
p538
(lp539
I1
aI70128
aI147
asS'that'
p540
(lp541
I3
aI29749
aI245
asS'5.93'
p542
(lp543
I1
aI30259
aI147
asVjuli
p544
(lp545
I2
aI39127
aI193
asVprovid
p546
(lp547
I1
aI126653
aI148
asS'part'
p548
(lp549
I2
aI31559
aI194
asS'2,692.4'
p550
(lp551
I1
aI70808
aI147
asS'4.45'
p552
(lp553
I1
aI58235
aI147
asS'than'
p554
(lp555
I1
aI106719
aI148
asS'11'
p556
(lp557
I2
aI71543
aI194
asS'1986/87'
p558
(lp559
I2
aI7214
aI193
asS'15'
p560
(lp561
I2
aI32919
aI194
asS'19'
p562
(lp563
I1
aI58745
aI147
asS'cbco'
p564
(lp565
I1
aI100234
aI148
asVshower
p566
(lp567
I1
aI13388
aI147
asS'brown-forman'
p568
(lp569
I1
aI117248
aI148
asS'327.2'
p570
(lp571
I1
aI100631
aI148
asS'0.99'
p572
(lp573
I1
aI59085
aI147
asS'were'
p574
(lp575
I3
aI34456
aI244
asS'4,841,000'
p576
(lp577
I1
aI114744
aI148
asVarrang
p578
(lp579
I1
aI127508
aI148
asVresult
p580
(lp581
I2
aI103934
aI195
asS'and'
p582
(lp583
I6
aI35475
aI394
asVdeliveri
p584
(lp585
I1
aI89902
aI148
asVcomput
p586
(lp587
I1
aI91722
aI148
asS'delay'
p588
(lp589
I1
aI102114
aI148
asS'DF'
p590
(lp591
I1
aI128363
aI148
asS'well'
p592
(lp593
I1
aI108252
aI148
asS'ann'
p594
(lp595
I1
aI126140
aI148
asVani
p596
(lp597
I2
aI90757
aI195
asS'have'
p598
(lp599
I3
aI38503
aI244
asVdeliv
p600
(lp601
I1
aI38787
aI147
asVseem
p602
(lp603
I1
aI38957
aI147
asVexclud
p604
(lp605
I1
aI113779
aI148
asVsell
p606
(lp607
I1
aI39691
aI147
asS'lugano'
p608
(lp609
I1
aI92577
aI148
asVform
p610
(lp611
I1
aI90415
aI148
asS'middlemen'
p612
(lp613
I1
aI41276
aI147
asS'also'
p614
(lp615
I5
aI3060
aI345
asS'291.8'
p616
(lp617
I1
aI111556
aI148
asS'chairman'
p618
(lp619
I1
aI129560
aI148
asS'which'
p620
(lp621
I1
aI41956
aI147
asS'season'
p622
(lp623
I1
aI42126
aI147
asS'1.35'
p624
(lp625
I1
aI60554
aI147
asVprinter
p626
(lp627
I1
aI93487
aI148
asS'normal'
p628
(lp629
I1
aI42690
aI147
asS'4,480'
p630
(lp631
I1
aI43206
aI147
asVprice
p632
(lp633
I3
aI43376
aI244
asS'In'
p634
(lp635
I2
aI47812
aI194
asVpresid
p636
(lp637
I1
aI130415
aI148
asS'75'
p638
(lp639
I1
aI93944
aI148
asS'100.9'
p640
(lp641
I1
aI74937
aI147
asS'73'
p642
(lp643
I1
aI116509
aI148
asS'but'
p644
(lp645
I1
aI90586
aI148
asS'drought'
p646
(lp647
I1
aI44735
aI147
asS'payment'
p648
(lp649
I1
aI111043
aI148
asS'299.2'
p650
(lp651
I1
aI99777
aI148
asVallevi
p652
(lp653
I1
aI45818
aI147
asS'87.4'
p654
(lp655
I1
aI75617
aI147
asS'chicago'
p656
(lp657
I1
aI119813
aI148
asVcover
p658
(lp659
I1
aI61744
aI147
asVsale
p660
(lp661
I4
aI46900
aI298
asS'48.0'
p662
(lp663
I1
aI75787
aI147
asVbracket
p664
(lp665
I1
aI75957
aI147
asS'48.6'
p666
(lp667
I1
aI76127
aI147
asS'48.7'
p668
(lp669
I1
aI76297
aI147
asVeffect
p670
(lp671
I1
aI130244
aI148
asS'dot'
p672
(lp673
I1
aI95141
aI148
asVhumid
p674
(lp675
I1
aI340
aI147
asS'show'
p676
(lp677
I1
aI62254
aI147
asVcruzado
p678
(lp679
I1
aI14816
aI147
asS'7.0'
p680
(lp681
I1
aI62594
aI147
asS'7.9'
p682
(lp683
I1
aI63104
aI147
asVblender
p684
(lp685
I1
aI118274
aI148
asS'impact'
p686
(lp687
I1
aI83698
aI148
asVonli
p688
(lp689
I1
aI2550
aI147
asVacquir
p690
(lp691
I1
aI83869
aI148
asS'bfd'
p692
(lp693
I1
aI115825
aI148
asS'872.0'
p694
(lp695
I1
aI71148
aI147
asS'enough'
p696
(lp697
I1
aI122207
aI148
asS'should'
p698
(lp699
I1
aI118787
aI148
asS'jan'
p700
(lp701
I1
aI111214
aI148
asS'oct/dec'
p702
(lp703
I1
aI31389
aI147
asS'oct'
p704
(lp705
I1
aI50924
aI147
asS'995'
p706
(lp707
I1
aI35934
aI147
asVcarryforward
p708
(lp709
I1
aI112924
aI148
asVvariou
p710
(lp711
I1
aI119129
aI148
asVargentin
p712
(lp713
I1
aI64858
aI147
asS'bean'
p714
(lp715
I1
aI7044
aI147
asS'149.8'
p716
(lp717
I1
aI66898
aI147
asVreport
p718
(lp719
I3
aI51434
aI245
asS'X'
(lp720
I1
aI51719
aI147
asS'166.1'
p721
(lp722
I1
aI65198
aI147
asS'year-ago'
p723
(lp724
I1
aI125969
aI148
asS'2,858,000'
p725
(lp726
I1
aI99606
aI148
asS'shr'
p727
(lp728
I3
aI99948
aI246
asVreluct
p729
(lp730
I1
aI8403
aI147
asVbag
p731
(lp732
I1
aI8967
aI147
asS'rate-x'
p733
(lp734
I1
aI52059
aI147
asS'common'
p735
(lp736
I2
aI82334
aI194
asS'switzerland'
p737
(lp738
I1
aI85181
aI148
asS'6.3'
p739
(lp740
I1
aI62934
aI147
asS'view'
p741
(lp742
I1
aI23513
aI147
asS'66.2'
p743
(lp744
I1
aI115141
aI148
asVcertif
p745
(lp746
I1
aI10556
aI147
asS'qtr'
p747
(lp748
I5
aI95312
aI348
asS'34.8'
p749
(lp750
I1
aI65878
aI147
asS'liquor'
p751
(lp752
I1
aI11066
aI147
asS'164.6'
p753
(lp754
I1
aI70978
aI147
asVsee
p755
(lp756
I1
aI121181
aI148
asS'are'
p757
(lp758
I2
aI12249
aI194
asS'dlrs/bu-sorghum'
p759
(lp760
I1
aI52569
aI147
asVreserv
p761
(lp762
I1
aI52739
aI147
asS'2.0'
p763
(lp764
I1
aI73183
aI147
asS'2.4'
p765
(lp766
I1
aI104331
aI148
asS'brazil'
p767
(lp768
I1
aI129902
aI148
asVproject
p769
(lp770
I1
aI121694
aI148
asS'said'
p771
(lp772
I5
aI13728
aI346
asS'sunoil'
p773
(lp774
I1
aI67238
aI147
asS'5/14/82'
p775
(lp776
I1
aI53079
aI147
asS'review'
p777
(lp778
I1
aI14986
aI147
asS'315.2'
p779
(lp780
I1
aI115312
aI148
asVmth
p781
(lp782
I2
aI114292
aI195
asVlabel
p783
(lp784
I1
aI86433
aI148
asVdlr
p785
(lp786
I6
aI16014
aI396
asVfigur
p787
(lp788
I2
aI16475
aI193
asVoutstand
p789
(lp790
I2
aI86604
aI195
asVexperi
p791
(lp792
I1
aI122378
aI148
asS'co.'
p793
(lp794
I1
aI119984
aI148
asS'we'
p795
(lp796
I1
aI122720
aI148
asVwa
p797
(lp798
I2
aI18004
aI194
asS'10.0'
p799
(lp800
I1
aI63614
aI147
asS'sold'
p801
(lp802
I2
aI18399
aI194
asS'prior'
p803
(lp804
I2
aI114915
aI195
asS'5.36'
p805
(lp806
I1
aI54493
aI147
asS'arroba'
p807
(lp808
I1
aI24078
aI147
asS'200,000'
p809
(lp810
I1
aI91380
aI148
asVdividend
p811
(lp812
I1
aI109962
aI148
asS'1,850'
p813
(lp814
I1
aI19304
aI147
asVcome
p815
(lp816
I1
aI19474
aI147
asS'n.a.-not'
p817
(lp818
I1
aI49232
aI147
asVaddit
p819
(lp820
I1
aI87172
aI148
asS'2.40'
p821
(lp822
I1
aI55173
aI147
asS'785'
p823
(lp824
I1
aI18624
aI147
asS'last'
p825
(lp826
I3
aI20670
aI245
asS'22'
p827
(lp828
I1
aI20955
aI147
asVlicense
p829
(lp830
I2
aI87343
aI195
asS'annual'
p831
(lp832
I1
aI81824
aI147
asValon
p833
(lp834
I1
aI128534
aI148
asS'equal'
p835
(lp836
I1
aI87911
aI148
asS'against'
p837
(lp838
I1
aI22038
aI147
asVnearbi
p839
(lp840
I1
aI22208
aI147
asS'32.9'
p841
(lp842
I1
aI68088
aI147
asS'april'
p843
(lp844
I2
aI78632
aI194
asS'1.65'
p845
(lp846
I1
aI55683
aI147
asS'1,750'
p847
(lp848
I1
aI22718
aI147
asVimprov
p849
(lp850
I3
aI23228
aI245
asVcarniv
p851
(lp852
I1
aI47247
aI147
asVprospect
p853
(lp854
I1
aI24248
aI147
asS'loan'
p855
(lp856
I2
aI56247
aI194
asS'omt'
p857
(lp858
I1
aI104899
aI148
asVarriv
p859
(lp860
I1
aI24813
aI147
asVtonn
p861
(lp862
I2
aI24983
aI193
asS'60'
p863
(lp864
I1
aI8233
aI147
asS'66'
p865
(lp866
I1
aI115654
aI148
asS'7/1/82'
p867
(lp868
I1
aI59874
aI147
asVdougla
p869
(lp870
I1
aI124772
aI148
asVmattress
p871
(lp872
I1
aI102456
aI148
asS'throughout'
p873
(lp874
I1
aI25547
aI147
asVct
p875
(lp876
I5
aI96857
aI348
asS'n.v.'
p877
(lp878
I1
aI89218
aI148
asS'howard'
p879
(lp880
I1
aI117590
aI148
asS'west'
p881
(lp882
I1
aI125114
aI148
asS'due'
p883
(lp884
I1
aI106377
aI148
asS'been'
p885
(lp886
I2
aI27308
aI194
asS'much'
p887
(lp888
I1
aI3462
aI147
asS'certain'
p889
(lp890
I1
aI91893
aI148
asS'CH'
p891
(lp892
I1
aI79885
aI147
asS'champion'
p893
(lp894
I1
aI80055
aI147
asS'6.13'
p895
(lp896
I1
aI26057
aI147
asS'thousand'
p897
(lp898
I2
aI42296
aI193
asS'mcd'
p899
(lp900
I1
aI126482
aI148
asS'+bahia'
p901
(lp902
I1
aI30824
aI147
asS'2,400'
p903
(lp904
I1
aI31219
aI147
asS'cpml'
p905
(lp906
I1
aI83527
aI148
asVstock'
p907
(lp908
I1
aI84668
aI148
asS'those'
p909
(lp910
I2
aI71318
aI194
asS'Co'
p911
(lp912
I2
aI102627
aI195
asS'these'
p913
(lp914
I1
aI106890
aI148
asS'mln'
p915
(lp916
I7
aI33314
aI444
asS'will'
p917
(lp918
I3
aI34001
aI245
asVcalcul
p919
(lp920
I1
aI109107
aI148
asS'sorghum'
p921
(lp922
I2
aI59255
aI193
asS'kingdom'
p923
(lp924
I1
aI127850
aI148
asS'seven'
p925
(lp926
I2
aI107403
aI195
asVpurchas
p927
(lp928
I1
aI91551
aI148
asS'almost'
p929
(lp930
I1
aI36274
aI147
asVworldwid
p931
(lp932
I1
aI94628
aI148
asS'is'
p933
(lp934
I3
aI36614
aI245
asVit
p935
(lp936
I5
aI37069
aI346
asVdestin
p937
(lp938
I1
aI28157
aI147
asS'vs'
p939
(lp940
I3
aI96571
aI246
asVsubstanti
p941
(lp942
I1
aI107855
aI148
asS'in'
p943
(lp944
I5
aI45988
aI345
asVavg
p945
(lp946
I2
aI59649
aI194
asS'13.2'
p947
(lp948
I1
aI72843
aI147
asS'13.0'
p949
(lp950
I1
aI73013
aI147
asS'if'
p951
(lp952
I1
aI93316
aI148
asS'aug/sept'
p953
(lp954
I1
aI27138
aI147
asVauthor
p955
(lp956
I1
aI76862
aI147
asVperform
p957
(lp958
I1
aI129047
aI148
asS'pay'
p959
(lp960
I1
aI92748
aI148
asVmake
p961
(lp962
I2
aI40656
aI194
asS'same'
p963
(lp964
I2
aI41051
aI194
asS'split'
p965
(lp966
I1
aI79715
aI147
asS'.125'
p967
(lp968
I1
aI93145
aI148
asS'grain'
p969
(lp970
I2
aI55853
aI193
asVprobabl
p971
(lp972
I1
aI128876
aI148
asVcomplet
p973
(lp974
I1
aI85352
aI148
asS'week'
p975
(lp976
I1
aI42520
aI147
asS'1.4'
p977
(lp978
I1
aI127679
aI148
asS'oil'
p979
(lp980
I1
aI66558
aI147
asS'nil'
p981
(lp982
I2
aI74712
aI194
asS'I'
(lp983
I1
aI60894
aI147
asS'VI'
p984
(lp985
I1
aI61064
aI147
asS'e.b.i'
p986
(lp987
I1
aI122891
aI148
asVjune/juli
p988
(lp989
I1
aI18229
aI147
asS'3,376,000'
p990
(lp991
I1
aI110304
aI148
asS'IV'
p992
(lp993
I1
aI61234
aI147
asS'2,375'
p994
(lp995
I1
aI44225
aI147
asVtypic
p996
(lp997
I1
aI105296
aI148
asS'recent'
p998
(lp999
I1
aI45075
aI147
asS'butter'
p1000
(lp1001
I1
aI29409
aI147
asS'lower'
p1002
(lp1003
I2
aI30994
aI194
asS'off'
p1004
(lp1005
I1
aI130757
aI148
asS'15.8'
p1006
(lp1007
I1
aI117077
aI148
asS'15.9'
p1008
(lp1009
I1
aI68428
aI147
asVtwo-for-on
p1010
(lp1011
I1
aI81994
aI147
asS'It'
p1012
(lp1013
I2
aI107629
aI195
asS'5.81'
p1014
(lp1015
I1
aI47417
aI147
asVexpens
p1016
(lp1017
I1
aI108594
aI148
asVthi
p1018
(lp1019
I2
aI47587
aI194
asS'350'
p1020
(lp1021
I1
aI46560
aI147
asS'the'
p1022
(lp1023
I7
aI48207
aI442
asS'woodco'
p1024
(lp1025
I1
aI94970
aI148
asS'1.27'
p1026
(lp1027
I1
aI131270
aI148
asVthird-quart
p1028
(lp1029
I1
aI129218
aI148
asS'1.25'
p1030
(lp1031
I1
aI48722
aI147
asS'1.24'
p1032
(lp1033
I1
aI62084
aI147
asS'april/may'
p1034
(lp1035
I1
aI3632
aI147
asVobtain
p1036
(lp1037
I1
aI850
aI147
asVweekli
p1038
(lp1039
I1
aI1020
aI147
asS'1,880'
p1040
(lp1041
I1
aI1190
aI147
asVkilo
p1042
(lp1043
I1
aI1870
aI147
asS'4,400'
p1044
(lp1045
I1
aI2380
aI147
asS'x-1986'
p1046
(lp1047
I1
aI50190
aI147
asVmcdonald
p1048
(lp1049
I1
aI118616
aI148
asS'rose'
p1050
(lp1051
I1
aI41786
aI147
asS'smith'
p1052
(lp1053
I1
aI3802
aI147
asS'76.1'
p1054
(lp1055
I1
aI64124
aI147
asVbook
p1056
(lp1057
I1
aI41616
aI147
asS'board'
p1058
(lp1059
I2
aI64294
aI193
asVexercis
p1060
(lp1061
I1
aI84326
aI148
asS'natl'
p1062
(lp1063
I1
aI50754
aI147
asVoilse
p1064
(lp1065
I1
aI64518
aI147
asVwarrant
p1066
(lp1067
I1
aI84497
aI148
asVearli
p1068
(lp1069
I3
aI5510
aI245
asS'australia'
p1070
(lp1071
I1
aI118958
aI148
asS'march'
p1072
(lp1073
I3
aI5965
aI244
asS'around'
p1074
(lp1075
I1
aI6249
aI147
asS'510.2'
p1076
(lp1077
I1
aI100973
aI148
asS'period'
p1078
(lp1079
I3
aI6589
aI245
asVlinse
p1080
(lp1081
I1
aI74088
aI147
asS'five'
p1082
(lp1083
I3
aI80742
aI245
asS'2nd'
p1084
(lp1085
I1
aI109449
aI148
asVloss
p1086
(lp1087
I1
aI113266
aI148
asS'2,986,000'
p1088
(lp1089
I1
aI113608
aI148
asVlike
p1090
(lp1091
I1
aI103079
aI148
asS"'ve"
p1092
(lp1093
I1
aI120326
aI148
asVbenefit
p1094
(lp1095
I1
aI120668
aI148
asS'reform'
p1096
(lp1097
I1
aI131099
aI148
asVexceed
p1098
(lp1099
I2
aI85523
aI195
asS'right'
p1100
(lp1101
I1
aI85749
aI148
asS'old'
p1102
(lp1103
I1
aI10726
aI147
asVsharehold
p1104
(lp1105
I2
aI77032
aI194
asS'some'
p1106
(lp1107
I1
aI11406
aI147
asS'3.7'
p1108
(lp1109
I1
aI71768
aI147
asVintern
p1110
(lp1111
I1
aI109791
aI148
asVexport
p1112
(lp1113
I2
aI12025
aI193
asS'linoil'
p1114
(lp1115
I1
aI66728
aI147
asS'for'
p1116
(lp1117
I7
aI14131
aI442
asS'bottom'
p1118
(lp1119
I1
aI121865
aI148
asS'per'
p1120
(lp1121
I5
aI15326
aI346
asS'wheat/barley'
p1122
(lp1123
I1
aI53419
aI147
asVunit
p1124
(lp1125
I1
aI124943
aI148
asS'fob'
p1126
(lp1127
I1
aI33831
aI147
asVcondit
p1128
(lp1129
I1
aI86830
aI148
asS'He'
p1130
(lp1131
I1
aI122549
aI148
asS'be'
p1132
(lp1133
I4
aI17487
aI298
asS'wheat'
p1134
(lp1135
I2
aI53929
aI193
asS'corn'
p1136
(lp1137
I1
aI53759
aI147
asS'4.65'
p1138
(lp1139
I1
aI54323
aI147
asS'440.3'
p1140
(lp1141
I1
aI101144
aI148
asS'although'
p1142
(lp1143
I1
aI19134
aI147
asS'from'
p1144
(lp1145
I4
aI78285
aI298
asS'by'
p1146
(lp1147
I1
aI13558
aI147
asS'stage'
p1148
(lp1149
I1
aI20160
aI147
asS'25.1'
p1150
(lp1151
I1
aI67748
aI147
asS'on'
p1152
(lp1153
I1
aI20330
aI147
asS'quarter'
p1154
(lp1155
I2
aI105070
aI195
asS'117.6'
p1156
(lp1157
I1
aI67918
aI147
asS'of'
p1158
(lp1159
I8
aI21295
aI492
asVslightli
p1160
(lp1161
I1
aI124088
aI148
asS'23.6'
p1162
(lp1163
I1
aI68258
aI147
asS'472.3'
p1164
(lp1165
I1
aI98574
aI148
asVstand
p1166
(lp1167
I1
aI22888
aI147
asS'act'
p1168
(lp1169
I1
aI124430
aI148
asS'sept'
p1170
(lp1171
I1
aI23683
aI147
asVprocessor
p1172
(lp1173
I2
aI23853
aI194
asS'plan'
p1174
(lp1175
I1
aI94115
aI148
asVroutin
p1176
(lp1177
I1
aI510
aI147
asS'33.7'
p1178
(lp1179
I1
aI75107
aI147
asS'80.8'
p1180
(lp1181
I1
aI68768
aI147
asS'cocoa'
p1182
(lp1183
I1
aI25207
aI147
asS'82.7'
p1184
(lp1185
I1
aI68938
aI147
asS'39.9'
p1186
(lp1187
I1
aI69448
aI147
asVensur
p1188
(lp1189
I1
aI88876
aI148
asS'dean'
p1190
(lp1191
I1
aI121010
aI148
asS'1986'
p1192
(lp1193
I5
aI56472
aI346
asS'1987'
p1194
(lp1195
I1
aI78115
aI147
asS'1984'
p1196
(lp1197
I1
aI56875
aI147
asS'1985'
p1198
(lp1199
I1
aI97262
aI148
asS'21.1'
p1200
(lp1201
I1
aI67578
aI147
asS'2.55'
p1202
(lp1203
I1
aI57215
aI147
asVarea
p1204
(lp1205
I1
aI21868
aI147
asS'there'
p1206
(lp1207
I1
aI26798
aI147
asVagricultur
p1208
(lp1209
I1
aI57555
aI147
asS'1988'
p1210
(lp1211
I1
aI125456
aI148
asVavail
p1212
(lp1213
I3
aI27533
aI244
asS'1.53'
p1214
(lp1215
I1
aI125627
aI148
asS'1.50'
p1216
(lp1217
I1
aI89560
aI148
asS'1.56'
p1218
(lp1219
I1
aI58065
aI147
asVinclud
p1220
(lp1221
I4
aI28327
aI298
asS'brazilian'
p1222
(lp1223
I1
aI22548
aI147
asS'forward'
p1224
(lp1225
I1
aI98232
aI148
asS'1.59'
p1226
(lp1227
I1
aI116906
aI148
asS'9.0'
p1228
(lp1229
I1
aI69958
aI147
asS'753'
p1230
(lp1231
I1
aI29239
aI147
asS'billion'
p1232
(lp1233
I2
aI116680
aI195
asS'buy'
p1234
(lp1235
I1
aI90073
aI148
asVreorgan
p1236
(lp1237
I1
aI90244
aI148
asVdificulti
p1238
(lp1239
I1
aI29579
aI147
asS'offer'
p1240
(lp1241
I1
aI40881
aI147
asS'recommend'
p1242
(lp1243
I1
aI79545
aI147
asS'jun'
p1244
(lp1245
I1
aI70298
aI147
asS'jul'
p1246
(lp1247
I1
aI70468
aI147
asS'1985/86'
p1248
(lp1249
I1
aI70638
aI147
asS'gain'
p1250
(lp1251
I1
aI98916
aI148
asS'line'
p1252
(lp1253
I1
aI126824
aI148
asVha
p1254
(lp1255
I3
aI31954
aI245
asS'with'
p1256
(lp1257
I2
aI30034
aI194
asVanalyst
p1258
(lp1259
I1
aI126995
aI148
asS'4,351'
p1260
(lp1261
I1
aI32409
aI147
asS'4,350'
p1262
(lp1263
I1
aI32579
aI147
asS'made'
p1264
(lp1265
I1
aI32749
aI147
asVveget
p1266
(lp1267
I2
aI71938
aI194
asS'up'
p1268
(lp1269
I2
aI91154
aI195
asS'us'
p1270
(lp1271
I1
aI127337
aI148
asS'4,104,000'
p1272
(lp1273
I1
aI113950
aI148
asS'record'
p1274
(lp1275
I1
aI82164
aI147
asS'below'
p1276
(lp1277
I1
aI107061
aI148
asVlimit
p1278
(lp1279
I1
aI34286
aI147
asS'cake'
p1280
(lp1281
I1
aI34740
aI147
asS'3.2'
p1282
(lp1283
I1
aI72333
aI147
asS'4,161.0'
p1284
(lp1285
I1
aI72503
aI147
asS'4,450'
p1286
(lp1287
I1
aI35080
aI147
asVconnect
p1288
(lp1289
I1
aI107232
aI148
asVcovert
p1290
(lp1291
I1
aI36444
aI147
asS'12.6'
p1292
(lp1293
I1
aI115483
aI148
asS'``'
p1294
(lp1295
I1
aI126311
aI148
asS'an'
p1296
(lp1297
I4
aI37472
aI297
asS"''"
p1298
(lp1299
I1
aI128705
aI148
asS'82'
p1300
(lp1301
I1
aI104160
aI148
asS'as'
p1302
(lp1303
I5
aI37818
aI344
asS'at'
p1304
(lp1305
I3
aI38219
aI244
asS'our'
p1306
(lp1307
I1
aI121352
aI148
asS'inc'
p1308
(lp1309
I7
aI77597
aI445
asS'again'
p1310
(lp1311
I1
aI39861
aI147
asS'107.3'
p1312
(lp1313
I1
aI73353
aI147
asS'45'
p1314
(lp1315
I1
aI170
aI147
asVdetail
p1316
(lp1317
I1
aI73693
aI147
asS'40'
p1318
(lp1319
I2
aI92919
aI195
asVoat
p1320
(lp1321
I1
aI60044
aI147
asS'3.25'
p1322
(lp1323
I1
aI60214
aI147
asVfutur
p1324
(lp1325
I2
aI73863
aI194
asS'corn/sorghum'
p1326
(lp1327
I1
aI60384
aI147
asS'151.1'
p1328
(lp1329
I1
aI112069
aI148
asVmatur
p1330
(lp1331
I1
aI60724
aI147
asVrepeat
p1332
(lp1333
I1
aI130073
aI148
asS"'s"
p1334
(lp1335
I3
aI93658
aI246
asS'march/april'
p1336
(lp1337
I1
aI17834
aI147
asS'AM'
p1338
(lp1339
I1
aI112240
aI148
asS'cobanco'
p1340
(lp1341
I1
aI98745
aI148
asS'807,000'
p1342
(lp1343
I1
aI99087
aI148
asS'fiscal'
p1344
(lp1345
I2
aI108026
aI195
asVexperienc
p1346
(lp1347
I1
aI45648
aI147
asS'111.8'
p1348
(lp1349
I1
aI76692
aI147
asVtime
p1350
(lp1351
I2
aI28674
aI194
asS'2,380'
p1352
(lp1353
I1
aI48037
aI147
asVdecemb
p1354
(lp1355
I1
aI130586
aI148
asS'12'
p1356
(lp1357
I2
aI76467
aI194
asS'145.3'
p1358
(lp1359
I1
aI66218
aI147
as.