(dp1
S'all'
p2
(lp3
I1
aI0
aL170L
asVentri
p4
(lp5
I1
aI130928
aL171L
asVconsider
p6
(lp7
I1
aI101601
aL171L
asS'month'
p8
(lp9
I1
aI62424
aL170L
asS'four'
p10
(lp11
I1
aI109620
aL171L
asVgrain/oilse
p12
(lp13
I1
aI62764
aL170L
asVseali
p14
(lp15
I1
aI101943
aL171L
asS'43.4'
p16
(lp17
I1
aI113095
aL171L
asVgo
p18
(lp19
I1
aI2040
aL170L
asVfollow
p20
(lp21
I2
aI49572
aL224L
asS'37.4'
p22
(lp23
I1
aI63274
aL170L
asS'milk'
p24
(lp25
I1
aI122036
aL171L
asVmiddl
p26
(lp27
I1
aI102285
aL171L
asVdairi
p28
(lp29
I1
aI123575
aL171L
asS'aug'
p30
(lp31
I1
aI9876
aL170L
asVharvest
p32
(lp33
I1
aI32239
aL170L
asS'1.19'
p34
(lp35
I1
aI97604
aL171L
asS'to'
p36
(lp37
I6
aI4257
aL459L
asVestim
p38
(lp39
I1
aI16699
aL170L
asS'340'
p40
(lp41
I1
aI4716
aL170L
asS'under'
p42
(lp43
I2
aI30599
aL225L
asVbuyer
p44
(lp45
I1
aI10896
aL170L
asS'45.1'
p46
(lp47
I1
aI64688
aL170L
asVsunflowerse
p48
(lp49
I1
aI65028
aL170L
asVfall
p50
(lp51
I1
aI119642
aL171L
asS'1,875'
p52
(lp53
I1
aI44395
aL170L
asS'ticket'
p54
(lp55
I1
aI84839
aL171L
asS'1,870'
p56
(lp57
I1
aI7893
aL170L
asS'298.5'
p58
(lp59
I1
aI112753
aL171L
asVadministr
p60
(lp61
I1
aI103250
aL171L
asVlevel
p62
(lp63
I2
aI8573
aL224L
asS'--'
p64
(lp65
I1
aI51889
aL170L
asS'ryan'
p66
(lp67
I1
aI120155
aL171L
asS'frozen'
p68
(lp69
I1
aI120497
aL171L
asS'2.28'
p70
(lp71
I1
aI15156
aL170L
asS'2.27'
p72
(lp73
I1
aI10046
aL170L
asS'bahia'
p74
(lp75
I1
aI10216
aL170L
asVapprais
p76
(lp77
I1
aI103763
aL171L
asS'55.8'
p78
(lp79
I1
aI66048
aL170L
asS'3.15'
p80
(lp81
I1
aI52229
aL170L
asS'crop'
p82
(lp83
I2
aI11801
aL224L
asS'tex'
p84
(lp85
I1
aI85920
aL171L
asVrate
p86
(lp87
I1
aI52399
aL170L
asVcost
p88
(lp89
I1
aI86091
aL171L
asVport
p90
(lp91
I1
aI13218
aL170L
asVcurrenc
p92
(lp93
I1
aI14646
aL170L
asVcurrent
p94
(lp95
I3
aI15729
aL285L
asVconduct
p96
(lp97
I1
aI104728
aL171L
asS'new'
p98
(lp99
I1
aI17093
aL170L
asS'net'
p100
(lp101
I4
aI99258
aL348L
asS'2,285,000'
p102
(lp103
I1
aI111898
aL171L
asS'told'
p104
(lp105
I1
aI120839
aL171L
asVinvolv
p106
(lp107
I1
aI87569
aL171L
asVderiv
p108
(lp109
I1
aI123062
aL171L
asVgener
p110
(lp111
I1
aI87001
aL171L
asS'n.a'
p112
(lp113
I1
aI54153
aL170L
asVmeet
p114
(lp115
I1
aI82559
aL170L
asS'100'
p116
(lp117
I1
aI54833
aL170L
asS'strong'
p118
(lp119
I1
aI123746
aL171L
asVsinc
p120
(lp121
I1
aI19644
aL170L
asVconvert
p122
(lp123
I1
aI20500
aL170L
asS'zone'
p124
(lp125
I1
aI2890
aL170L
asS'0.39'
p126
(lp127
I1
aI21125
aL170L
asS'31'
p128
(lp129
I1
aI113437
aL171L
asS'30'
p130
(lp131
I1
aI123917
aL171L
asVtechnolog
p132
(lp133
I1
aI87740
aL171L
asS'36'
p134
(lp135
I1
aI124259
aL171L
asS'35'
p136
(lp137
I1
aI6419
aL170L
asS'34'
p138
(lp139
I2
aI100405
aL226L
asVdri
p140
(lp141
I1
aI22378
aL170L
asVcredit
p142
(lp143
I1
aI114121
aL171L
asS'corp'
p144
(lp145
I1
aI123404
aL171L
asVchang
p146
(lp147
I1
aI88082
aL171L
asVdepart
p148
(lp149
I1
aI56077
aL170L
asS'67.1'
p150
(lp151
I1
aI105638
aL171L
asVdeclin
p152
(lp153
I1
aI105809
aL171L
asS'apr'
p154
(lp155
I1
aI68598
aL170L
asVprefer
p156
(lp157
I1
aI108936
aL171L
asS'elgin'
p158
(lp159
I1
aI128021
aL171L
asS'569.3'
p160
(lp161
I1
aI109278
aL171L
asS'182.4'
p162
(lp163
I1
aI69108
aL170L
asS'soybean'
p164
(lp165
I1
aI69278
aL170L
asS'1st'
p166
(lp167
I1
aI106206
aL171L
asS'total'
p168
(lp169
I3
aI5056
aL284L
asS'market'
p170
(lp171
I1
aI89047
aL171L
asS'2,325'
p172
(lp173
I1
aI25887
aL170L
asS'feb'
p174
(lp175
I1
aI69618
aL170L
asS'would'
p176
(lp177
I4
aI26227
aL347L
asS'nine'
p178
(lp179
I2
aI114518
aL226L
asVregist
p180
(lp181
I1
aI26968
aL170L
asS'two'
p182
(lp183
I1
aI110872
aL171L
asVy-dlr
p184
(lp185
I1
aI55003
aL170L
asS'few'
p186
(lp187
I1
aI27817
aL170L
asS'doubt'
p188
(lp189
I1
aI27987
aL170L
asS'call'
p190
(lp191
I1
aI57725
aL170L
asVasset
p192
(lp193
I1
aI98061
aL171L
asS'6'
(lp194
I1
aI57895
aL170L
asVincreas
p195
(lp196
I2
aI81252
aL225L
asS'prev'
p197
(lp198
I1
aI69788
aL170L
asS'midday'
p199
(lp200
I1
aI29069
aL170L
asS'479.7'
p201
(lp202
I1
aI98403
aL171L
asVcapit
p203
(lp204
I2
aI81027
aL225L
asVregistr
p205
(lp206
I1
aI72673
aL170L
asS'1,780'
p207
(lp208
I1
aI44565
aL170L
asS'tax'
p209
(lp210
I2
aI96059
aL226L
asVhundr
p211
(lp212
I1
aI30429
aL170L
asVrelat
p213
(lp214
I1
aI106548
aL171L
asS'41.1'
p215
(lp216
I1
aI112411
aL171L
asS'V'
(lp217
I1
aI49062
aL170L
asS'five-day'
p218
(lp219
I1
aI58405
aL170L
asVcompani
p220
(lp221
I4
aI81477
aL347L
asVhold
p222
(lp223
I1
aI90983
aL171L
asS'iii'
p224
(lp225
I1
aI58575
aL170L
asVrestor
p226
(lp227
I1
aI33144
aL170L
asS'2.65'
p228
(lp229
I1
aI58915
aL170L
asS'61.5'
p230
(lp231
I1
aI72163
aL170L
asS'61.8'
p232
(lp233
I1
aI67408
aL170L
asS'dec'
p234
(lp235
I1
aI34910
aL170L
asVfarmer-own
p236
(lp237
I1
aI55513
aL170L
asS'control'
p238
(lp239
I1
aI88479
aL171L
asS'kenneth'
p240
(lp241
I1
aI128192
aL171L
asS'uruguay'
p242
(lp243
I1
aI36104
aL170L
asS'comissaria'
p244
(lp245
I1
aI36899
aL170L
asVshare
p246
(lp247
I4
aI80225
aL347L
asVtag
p248
(lp249
I1
aI92064
aL171L
asS'occur'
p250
(lp251
I1
aI92235
aL171L
asS'51.6'
p252
(lp253
I1
aI110133
aL171L
asS'51.7'
p254
(lp255
I1
aI111727
aL171L
asS'4,340'
p256
(lp257
I1
aI40031
aL170L
asVend
p258
(lp259
I3
aI40201
aL285L
asS'4,345'
p260
(lp261
I1
aI40486
aL170L
asS'reuter'
p262
(lp263
I1
aI73523
aL170L
asS'1'
(lp264
I1
aI78857
aL170L
asS'how'
p265
(lp266
I1
aI41446
aL170L
asS'larsen'
p267
(lp268
I1
aI129389
aL171L
asS'fourth'
p269
(lp270
I1
aI129731
aL171L
asS'stock'
p271
(lp272
I3
aI82729
aL285L
asVproduct
p273
(lp274
I3
aI74258
aL284L
asS'mar'
p275
(lp276
I1
aI74542
aL170L
asS'sedio'
p277
(lp278
I1
aI92406
aL171L
asS'may'
p279
(lp280
I4
aI42860
aL346L
asS'after'
p281
(lp282
I4
aI19814
aL346L
asS'spot'
p283
(lp284
I1
aI43885
aL170L
asVreflect
p285
(lp286
I1
aI61404
aL170L
asVrang
p287
(lp288
I1
aI124601
aL171L
asS'4th'
p289
(lp290
I3
aI96285
aL286L
asVdirector
p291
(lp292
I1
aI80572
aL170L
asS'155,221'
p293
(lp294
I1
aI44905
aL170L
asVaverag
p295
(lp296
I1
aI61574
aL170L
asS'a'
(lp297
I5
aI45245
aL403L
asVcircumst
p298
(lp299
I1
aI94457
aL171L
asVpractic
p300
(lp301
I1
aI46390
aL170L
asS'light'
p302
(lp303
I1
aI46730
aL170L
asS'5,086,000'
p304
(lp305
I1
aI112582
aL171L
asS'or'
p306
(lp307
I3
aI101315
aL286L
asVissu
p308
(lp309
I1
aI108423
aL171L
asVdeposit
p310
(lp311
I1
aI100802
aL171L
asVenter
p312
(lp313
I1
aI61914
aL170L
asVexclus
p314
(lp315
I1
aI94799
aL171L
asS'houston'
p316
(lp317
I1
aI83014
aL171L
asS'six'
p318
(lp319
I1
aI110475
aL171L
asS'help'
p320
(lp321
I1
aI83185
aL171L
asVanticip
p322
(lp323
I1
aI117761
aL171L
asS'2,227,000'
p324
(lp325
I1
aI108765
aL171L
asS'over'
p326
(lp327
I1
aI680
aL170L
asVmove
p328
(lp329
I1
aI83356
aL171L
asVapprov
p330
(lp331
I1
aI77257
aL170L
asVbecaus
p332
(lp333
I1
aI101772
aL171L
asS'trade'
p334
(lp335
I1
aI39351
aL170L
asS'held'
p336
(lp337
I1
aI1360
aL170L
asS'6.4'
p338
(lp339
I1
aI1530
aL170L
asS'through'
p340
(lp341
I1
aI49402
aL170L
asS'6.2'
p342
(lp343
I1
aI1700
aL170L
asS'japan'
p344
(lp345
I1
aI118103
aL171L
asS'still'
p346
(lp347
I1
aI2210
aL170L
asS'1.92'
p348
(lp349
I1
aI49796
aL170L
asS'6.8'
p350
(lp351
I1
aI63444
aL170L
asS'25'
p352
(lp353
I2
aI49966
aL224L
asS'27'
p354
(lp355
I1
aI2720
aL170L
asVlb
p356
(lp357
I1
aI50360
aL170L
asS'fit'
p358
(lp359
I1
aI11236
aL170L
asS'23'
p360
(lp361
I2
aI50530
aL224L
asS'temporao'
p362
(lp363
I1
aI23058
aL170L
asS'218.5'
p364
(lp365
I1
aI63784
aL170L
asS'28'
p366
(lp367
I2
aI24418
aL225L
asS'50,000'
p368
(lp369
I1
aI85010
aL171L
asS'pct'
p370
(lp371
I3
aI84040
aL286L
asVmaiz
p372
(lp373
I1
aI63954
aL170L
asS'late'
p374
(lp375
I3
aI3972
aL285L
asS'whether'
p376
(lp377
I1
aI127166
aL171L
asS'lt'
p378
(lp379
I7
aI79027
aL518L
asVfarmer
p380
(lp381
I1
aI4886
aL170L
asS'argentina'
p382
(lp383
I1
aI5340
aL170L
asS'5.54'
p384
(lp385
I1
aI51094
aL170L
asS'good'
p386
(lp387
I1
aI5795
aL170L
asVfood
p388
(lp389
I1
aI119300
aL171L
asVoveral
p390
(lp391
I1
aI119471
aL171L
asVearn
p392
(lp393
I2
aI102853
aL226L
asVnation
p394
(lp395
I1
aI51264
aL170L
asVconsign
p396
(lp397
I1
aI6874
aL170L
asS'not'
p398
(lp399
I3
aI7438
aL285L
asS'canada'
p400
(lp401
I1
aI121523
aL171L
asS'now'
p402
(lp403
I1
aI7723
aL170L
asS'bread'
p404
(lp405
I1
aI65368
aL170L
asS'14.5'
p406
(lp407
I1
aI65538
aL170L
asVname
p408
(lp409
I1
aI8063
aL170L
asS'1.06'
p410
(lp411
I1
aI39521
aL170L
asS'24.5'
p412
(lp413
I1
aI65708
aL170L
asS'4,415'
p414
(lp415
I1
aI8797
aL170L
asVfebruari
p416
(lp417
I4
aI9137
aL345L
asS'1,655.8'
p418
(lp419
I1
aI75447
aL170L
asS'3.08'
p420
(lp421
I1
aI116167
aL171L
asVjanuari
p422
(lp423
I2
aI9482
aL224L
asS'went'
p424
(lp425
I1
aI9706
aL170L
asS'higher'
p426
(lp427
I1
aI103592
aL171L
asVmean
p428
(lp429
I1
aI10386
aL170L
asVcontinu
p430
(lp431
I2
aI11576
aL225L
asVsubproduct
p432
(lp433
I1
aI66388
aL170L
asVexpect
p434
(lp435
I2
aI35250
aL225L
asS'year'
p436
(lp437
I5
aI12474
aL404L
asV3.25-i
p438
(lp439
I1
aI59479
aL170L
asS'superior+'
p440
(lp441
I1
aI12878
aL170L
asVcommiss
p442
(lp443
I1
aI13048
aL170L
asS'20.0'
p444
(lp445
I1
aI67068
aL170L
asS'2.34'
p446
(lp447
I1
aI52909
aL170L
asS'20.4'
p448
(lp449
I1
aI75277
aL170L
asS'matrix'
p450
(lp451
I1
aI86262
aL171L
asVprofit
p452
(lp453
I2
aI104502
aL226L
asVrev
p454
(lp455
I2
aI110646
aL226L
asS'cwt'
p456
(lp457
I1
aI53249
aL170L
asVpublish
p458
(lp459
I1
aI48892
aL170L
asS'barley'
p460
(lp461
I1
aI53589
aL170L
asS'shipment'
p462
(lp463
I2
aI16869
aL224L
asVextraordinari
p464
(lp465
I1
aI95717
aL171L
asS'earlier'
p466
(lp467
I2
aI43660
aL225L
asS'u.s.'
p468
(lp469
I2
aI17263
aL224L
asS'3.07'
p470
(lp471
I1
aI116338
aL171L
asS'20'
p472
(lp473
I1
aI118445
aL171L
asS'york'
p474
(lp475
I1
aI18794
aL170L
asS'ohio'
p476
(lp477
I1
aI103421
aL171L
asVreleas
p478
(lp479
I1
aI54663
aL170L
asVhand
p480
(lp481
I1
aI44055
aL170L
asS'II'
p482
(lp483
I1
aI55343
aL170L
asVshipper
p484
(lp485
I1
aI18964
aL170L
asS'132,000'
p486
(lp487
I1
aI97433
aL171L
asS'1981'
p488
(lp489
I1
aI57385
aL170L
asS'997.1'
p490
(lp491
I1
aI117419
aL171L
asS'ltd'
p492
(lp493
I1
aI123233
aL171L
asVtechnolgi
p494
(lp495
I1
aI94286
aL171L
asS'first'
p496
(lp497
I1
aI105467
aL171L
asVoper
p498
(lp499
I2
aI88253
aL226L
asS'337.3'
p500
(lp501
I1
aI115996
aL171L
asS'major'
p502
(lp503
I1
aI117932
aL171L
asS'note'
p504
(lp505
I3
aI97775
aL286L
asVcarri
p506
(lp507
I1
aI95888
aL171L
asVqualiti
p508
(lp509
I1
aI24643
aL170L
asS'one'
p510
(lp511
I2
aI88650
aL226L
asVacquisit
p512
(lp513
I2
aI105980
aL226L
asS'1987/88'
p514
(lp515
I1
aI25377
aL170L
asVvote
p516
(lp517
I1
aI77427
aL170L
asS'open'
p518
(lp519
I1
aI25717
aL170L
asS'feedgrain'
p520
(lp521
I1
aI57045
aL170L
asS'442,000'
p522
(lp523
I1
aI111385
aL171L
asVlicens
p524
(lp525
I1
aI125285
aL171L
asVsystem
p526
(lp527
I1
aI89389
aL171L
asS'their'
p528
(lp529
I2
aI26574
aL224L
asVcumul
p530
(lp531
I1
aI31784
aL170L
asS'too'
p532
(lp533
I1
aI125798
aL171L
asVtermin
p534
(lp535
I1
aI89731
aL171L
asS'final'
p536
(lp537
I1
aI28899
aL170L
asS'15.0'
p538
(lp539
I1
aI70128
aL170L
asS'that'
p540
(lp541
I3
aI29749
aL285L
asS'5.93'
p542
(lp543
I1
aI30259
aL170L
asVjuli
p544
(lp545
I2
aI39127
aL224L
asVprovid
p546
(lp547
I1
aI126653
aL171L
asS'part'
p548
(lp549
I2
aI31559
aL225L
asS'2,692.4'
p550
(lp551
I1
aI70808
aL170L
asS'4.45'
p552
(lp553
I1
aI58235
aL170L
asS'than'
p554
(lp555
I1
aI106719
aL171L
asS'11'
p556
(lp557
I2
aI71543
aL225L
asS'1986/87'
p558
(lp559
I2
aI7214
aL224L
asS'15'
p560
(lp561
I2
aI32919
aL225L
asS'19'
p562
(lp563
I1
aI58745
aL170L
asS'cbco'
p564
(lp565
I1
aI100234
aL171L
asVshower
p566
(lp567
I1
aI13388
aL170L
asS'brown-forman'
p568
(lp569
I1
aI117248
aL171L
asS'327.2'
p570
(lp571
I1
aI100631
aL171L
asS'0.99'
p572
(lp573
I1
aI59085
aL170L
asS'were'
p574
(lp575
I3
aI34456
aL284L
asS'4,841,000'
p576
(lp577
I1
aI114744
aL171L
asVarrang
p578
(lp579
I1
aI127508
aL171L
asVresult
p580
(lp581
I2
aI103934
aL226L
asS'and'
p582
(lp583
I6
aI35475
aL459L
asVdeliveri
p584
(lp585
I1
aI89902
aL171L
asVcomput
p586
(lp587
I1
aI91722
aL171L
asS'delay'
p588
(lp589
I1
aI102114
aL171L
asS'DF'
p590
(lp591
I1
aI128363
aL171L
asS'well'
p592
(lp593
I1
aI108252
aL171L
asS'ann'
p594
(lp595
I1
aI126140
aL171L
asVani
p596
(lp597
I2
aI90757
aL226L
asS'have'
p598
(lp599
I3
aI38503
aL284L
asVdeliv
p600
(lp601
I1
aI38787
aL170L
asVseem
p602
(lp603
I1
aI38957
aL170L
asVexclud
p604
(lp605
I1
aI113779
aL171L
asVsell
p606
(lp607
I1
aI39691
aL170L
asS'lugano'
p608
(lp609
I1
aI92577
aL171L
asVform
p610
(lp611
I1
aI90415
aL171L
asS'middlemen'
p612
(lp613
I1
aI41276
aL170L
asS'also'
p614
(lp615
I5
aI3060
aL402L
asS'291.8'
p616
(lp617
I1
aI111556
aL171L
asS'chairman'
p618
(lp619
I1
aI129560
aL171L
asS'which'
p620
(lp621
I1
aI41956
aL170L
asS'season'
p622
(lp623
I1
aI42126
aL170L
asS'1.35'
p624
(lp625
I1
aI60554
aL170L
asVprinter
p626
(lp627
I1
aI93487
aL171L
asS'normal'
p628
(lp629
I1
aI42690
aL170L
asS'4,480'
p630
(lp631
I1
aI43206
aL170L
asVprice
p632
(lp633
I3
aI43376
aL284L
asS'In'
p634
(lp635
I2
aI47812
aL225L
asVpresid
p636
(lp637
I1
aI130415
aL171L
asS'75'
p638
(lp639
I1
aI93944
aL171L
asS'100.9'
p640
(lp641
I1
aI74937
aL170L
asS'73'
p642
(lp643
I1
aI116509
aL171L
asS'but'
p644
(lp645
I1
aI90586
aL171L
asS'drought'
p646
(lp647
I1
aI44735
aL170L
asS'payment'
p648
(lp649
I1
aI111043
aL171L
asS'299.2'
p650
(lp651
I1
aI99777
aL171L
asVallevi
p652
(lp653
I1
aI45818
aL170L
asS'87.4'
p654
(lp655
I1
aI75617
aL170L
asS'chicago'
p656
(lp657
I1
aI119813
aL171L
asVcover
p658
(lp659
I1
aI61744
aL170L
asVsale
p660
(lp661
I4
aI46900
aL347L
asS'48.0'
p662
(lp663
I1
aI75787
aL170L
asVbracket
p664
(lp665
I1
aI75957
aL170L
asS'48.6'
p666
(lp667
I1
aI76127
aL170L
asS'48.7'
p668
(lp669
I1
aI76297
aL170L
asVeffect
p670
(lp671
I1
aI130244
aL171L
asS'dot'
p672
(lp673
I1
aI95141
aL171L
asVhumid
p674
(lp675
I1
aI340
aL170L
asS'show'
p676
(lp677
I1
aI62254
aL170L
asVcruzado
p678
(lp679
I1
aI14816
aL170L
asS'7.0'
p680
(lp681
I1
aI62594
aL170L
asS'7.9'
p682
(lp683
I1
aI63104
aL170L
asVblender
p684
(lp685
I1
aI118274
aL171L
asS'impact'
p686
(lp687
I1
aI83698
aL171L
asVonli
p688
(lp689
I1
aI2550
aL170L
asVacquir
p690
(lp691
I1
aI83869
aL171L
asS'bfd'
p692
(lp693
I1
aI115825
aL171L
asS'872.0'
p694
(lp695
I1
aI71148
aL170L
asS'enough'
p696
(lp697
I1
aI122207
aL171L
asS'should'
p698
(lp699
I1
aI118787
aL171L
asS'jan'
p700
(lp701
I1
aI111214
aL171L
asS'oct/dec'
p702
(lp703
I1
aI31389
aL170L
asS'oct'
p704
(lp705
I1
aI50924
aL170L
asS'995'
p706
(lp707
I1
aI35934
aL170L
asVcarryforward
p708
(lp709
I1
aI112924
aL171L
asVvariou
p710
(lp711
I1
aI119129
aL171L
asVargentin
p712
(lp713
I1
aI64858
aL170L
asS'bean'
p714
(lp715
I1
aI7044
aL170L
asS'149.8'
p716
(lp717
I1
aI66898
aL170L
asVreport
p718
(lp719
I3
aI51434
aL285L
asS'X'
(lp720
I1
aI51719
aL170L
asS'166.1'
p721
(lp722
I1
aI65198
aL170L
asS'year-ago'
p723
(lp724
I1
aI125969
aL171L
asS'2,858,000'
p725
(lp726
I1
aI99606
aL171L
asS'shr'
p727
(lp728
I3
aI99948
aL286L
asVreluct
p729
(lp730
I1
aI8403
aL170L
asVbag
p731
(lp732
I1
aI8967
aL170L
asS'rate-x'
p733
(lp734
I1
aI52059
aL170L
asS'common'
p735
(lp736
I2
aI82334
aL225L
asS'switzerland'
p737
(lp738
I1
aI85181
aL171L
asS'6.3'
p739
(lp740
I1
aI62934
aL170L
asS'view'
p741
(lp742
I1
aI23513
aL170L
asS'66.2'
p743
(lp744
I1
aI115141
aL171L
asVcertif
p745
(lp746
I1
aI10556
aL170L
asS'qtr'
p747
(lp748
I5
aI95312
aL405L
asS'34.8'
p749
(lp750
I1
aI65878
aL170L
asS'liquor'
p751
(lp752
I1
aI11066
aL170L
asS'164.6'
p753
(lp754
I1
aI70978
aL170L
asVsee
p755
(lp756
I1
aI121181
aL171L
asS'are'
p757
(lp758
I2
aI12249
aL225L
asS'dlrs/bu-sorghum'
p759
(lp760
I1
aI52569
aL170L
asVreserv
p761
(lp762
I1
aI52739
aL170L
asS'2.0'
p763
(lp764
I1
aI73183
aL170L
asS'2.4'
p765
(lp766
I1
aI104331
aL171L
asS'brazil'
p767
(lp768
I1
aI129902
aL171L
asVproject
p769
(lp770
I1
aI121694
aL171L
asS'said'
p771
(lp772
I5
aI13728
aL403L
asS'sunoil'
p773
(lp774
I1
aI67238
aL170L
asS'5/14/82'
p775
(lp776
I1
aI53079
aL170L
asS'review'
p777
(lp778
I1
aI14986
aL170L
asS'315.2'
p779
(lp780
I1
aI115312
aL171L
asVmth
p781
(lp782
I2
aI114292
aL226L
asVlabel
p783
(lp784
I1
aI86433
aL171L
asVdlr
p785
(lp786
I6
aI16014
aL461L
asVfigur
p787
(lp788
I2
aI16475
aL224L
asVoutstand
p789
(lp790
I2
aI86604
aL226L
asVexperi
p791
(lp792
I1
aI122378
aL171L
asS'co.'
p793
(lp794
I1
aI119984
aL171L
asS'we'
p795
(lp796
I1
aI122720
aL171L
asVwa
p797
(lp798
I2
aI18004
aL225L
asS'10.0'
p799
(lp800
I1
aI63614
aL170L
asS'sold'
p801
(lp802
I2
aI18399
aL225L
asS'prior'
p803
(lp804
I2
aI114915
aL226L
asS'5.36'
p805
(lp806
I1
aI54493
aL170L
asS'arroba'
p807
(lp808
I1
aI24078
aL170L
asS'200,000'
p809
(lp810
I1
aI91380
aL171L
asVdividend
p811
(lp812
I1
aI109962
aL171L
asS'1,850'
p813
(lp814
I1
aI19304
aL170L
asVcome
p815
(lp816
I1
aI19474
aL170L
asS'n.a.-not'
p817
(lp818
I1
aI49232
aL170L
asVaddit
p819
(lp820
I1
aI87172
aL171L
asS'2.40'
p821
(lp822
I1
aI55173
aL170L
asS'785'
p823
(lp824
I1
aI18624
aL170L
asS'last'
p825
(lp826
I3
aI20670
aL285L
asS'22'
p827
(lp828
I1
aI20955
aL170L
asVlicense
p829
(lp830
I2
aI87343
aL226L
asS'annual'
p831
(lp832
I1
aI81824
aL170L
asValon
p833
(lp834
I1
aI128534
aL171L
asS'equal'
p835
(lp836
I1
aI87911
aL171L
asS'against'
p837
(lp838
I1
aI22038
aL170L
asVnearbi
p839
(lp840
I1
aI22208
aL170L
asS'32.9'
p841
(lp842
I1
aI68088
aL170L
asS'april'
p843
(lp844
I2
aI78632
aL225L
asS'1.65'
p845
(lp846
I1
aI55683
aL170L
asS'1,750'
p847
(lp848
I1
aI22718
aL170L
asVimprov
p849
(lp850
I3
aI23228
aL285L
asVcarniv
p851
(lp852
I1
aI47247
aL170L
asVprospect
p853
(lp854
I1
aI24248
aL170L
asS'loan'
p855
(lp856
I2
aI56247
aL225L
asS'omt'
p857
(lp858
I1
aI104899
aL171L
asVarriv
p859
(lp860
I1
aI24813
aL170L
asVtonn
p861
(lp862
I2
aI24983
aL224L
asS'60'
p863
(lp864
I1
aI8233
aL170L
asS'66'
p865
(lp866
I1
aI115654
aL171L
asS'7/1/82'
p867
(lp868
I1
aI59874
aL170L
asVdougla
p869
(lp870
I1
aI124772
aL171L
asVmattress
p871
(lp872
I1
aI102456
aL171L
asS'throughout'
p873
(lp874
I1
aI25547
aL170L
asVct
p875
(lp876
I5
aI96857
aL405L
asS'n.v.'
p877
(lp878
I1
aI89218
aL171L
asS'howard'
p879
(lp880
I1
aI117590
aL171L
asS'west'
p881
(lp882
I1
aI125114
aL171L
asS'due'
p883
(lp884
I1
aI106377
aL171L
asS'been'
p885
(lp886
I2
aI27308
aL225L
asS'much'
p887
(lp888
I1
aI3462
aL170L
asS'certain'
p889
(lp890
I1
aI91893
aL171L
asS'CH'
p891
(lp892
I1
aI79885
aL170L
asS'champion'
p893
(lp894
I1
aI80055
aL170L
asS'6.13'
p895
(lp896
I1
aI26057
aL170L
asS'thousand'
p897
(lp898
I2
aI42296
aL224L
asS'mcd'
p899
(lp900
I1
aI126482
aL171L
asS'+bahia'
p901
(lp902
I1
aI30824
aL170L
asS'2,400'
p903
(lp904
I1
aI31219
aL170L
asS'cpml'
p905
(lp906
I1
aI83527
aL171L
asVstock'
p907
(lp908
I1
aI84668
aL171L
asS'those'
p909
(lp910
I2
aI71318
aL225L
asS'Co'
p911
(lp912
I2
aI102627
aL226L
asS'these'
p913
(lp914
I1
aI106890
aL171L
asS'mln'
p915
(lp916
I7
aI33314
aL517L
asS'will'
p917
(lp918
I3
aI34001
aL285L
asVcalcul
p919
(lp920
I1
aI109107
aL171L
asS'sorghum'
p921
(lp922
I2
aI59255
aL224L
asS'kingdom'
p923
(lp924
I1
aI127850
aL171L
asS'seven'
p925
(lp926
I2
aI107403
aL226L
asVpurchas
p927
(lp928
I1
aI91551
aL171L
asS'almost'
p929
(lp930
I1
aI36274
aL170L
asVworldwid
p931
(lp932
I1
aI94628
aL171L
asS'is'
p933
(lp934
I3
aI36614
aL285L
asVit
p935
(lp936
I5
aI37069
aL403L
asVdestin
p937
(lp938
I1
aI28157
aL170L
asS'vs'
p939
(lp940
I3
aI96571
aL286L
asVsubstanti
p941
(lp942
I1
aI107855
aL171L
asS'in'
p943
(lp944
I5
aI45988
aL402L
asVavg
p945
(lp946
I2
aI59649
aL225L
asS'13.2'
p947
(lp948
I1
aI72843
aL170L
asS'13.0'
p949
(lp950
I1
aI73013
aL170L
asS'if'
p951
(lp952
I1
aI93316
aL171L
asS'aug/sept'
p953
(lp954
I1
aI27138
aL170L
asVauthor
p955
(lp956
I1
aI76862
aL170L
asVperform
p957
(lp958
I1
aI129047
aL171L
asS'pay'
p959
(lp960
I1
aI92748
aL171L
asVmake
p961
(lp962
I2
aI40656
aL225L
asS'same'
p963
(lp964
I2
aI41051
aL225L
asS'split'
p965
(lp966
I1
aI79715
aL170L
asS'.125'
p967
(lp968
I1
aI93145
aL171L
asS'grain'
p969
(lp970
I2
aI55853
aL224L
asVprobabl
p971
(lp972
I1
aI128876
aL171L
asVcomplet
p973
(lp974
I1
aI85352
aL171L
asS'week'
p975
(lp976
I1
aI42520
aL170L
asS'1.4'
p977
(lp978
I1
aI127679
aL171L
asS'oil'
p979
(lp980
I1
aI66558
aL170L
asS'nil'
p981
(lp982
I2
aI74712
aL225L
asS'I'
(lp983
I1
aI60894
aL170L
asS'VI'
p984
(lp985
I1
aI61064
aL170L
asS'e.b.i'
p986
(lp987
I1
aI122891
aL171L
asVjune/juli
p988
(lp989
I1
aI18229
aL170L
asS'3,376,000'
p990
(lp991
I1
aI110304
aL171L
asS'IV'
p992
(lp993
I1
aI61234
aL170L
asS'2,375'
p994
(lp995
I1
aI44225
aL170L
asVtypic
p996
(lp997
I1
aI105296
aL171L
asS'recent'
p998
(lp999
I1
aI45075
aL170L
asS'butter'
p1000
(lp1001
I1
aI29409
aL170L
asS'lower'
p1002
(lp1003
I2
aI30994
aL225L
asS'off'
p1004
(lp1005
I1
aI130757
aL171L
asS'15.8'
p1006
(lp1007
I1
aI117077
aL171L
asS'15.9'
p1008
(lp1009
I1
aI68428
aL170L
asVtwo-for-on
p1010
(lp1011
I1
aI81994
aL170L
asS'It'
p1012
(lp1013
I2
aI107629
aL226L
asS'5.81'
p1014
(lp1015
I1
aI47417
aL170L
asVexpens
p1016
(lp1017
I1
aI108594
aL171L
asVthi
p1018
(lp1019
I2
aI47587
aL225L
asS'350'
p1020
(lp1021
I1
aI46560
aL170L
asS'the'
p1022
(lp1023
I7
aI48207
aL515L
asS'woodco'
p1024
(lp1025
I1
aI94970
aL171L
asS'1.27'
p1026
(lp1027
I1
aI131270
aL171L
asVthird-quart
p1028
(lp1029
I1
aI129218
aL171L
asS'1.25'
p1030
(lp1031
I1
aI48722
aL170L
asS'1.24'
p1032
(lp1033
I1
aI62084
aL170L
asS'april/may'
p1034
(lp1035
I1
aI3632
aL170L
asVobtain
p1036
(lp1037
I1
aI850
aL170L
asVweekli
p1038
(lp1039
I1
aI1020
aL170L
asS'1,880'
p1040
(lp1041
I1
aI1190
aL170L
asVkilo
p1042
(lp1043
I1
aI1870
aL170L
asS'4,400'
p1044
(lp1045
I1
aI2380
aL170L
asS'x-1986'
p1046
(lp1047
I1
aI50190
aL170L
asVmcdonald
p1048
(lp1049
I1
aI118616
aL171L
asS'rose'
p1050
(lp1051
I1
aI41786
aL170L
asS'smith'
p1052
(lp1053
I1
aI3802
aL170L
asS'76.1'
p1054
(lp1055
I1
aI64124
aL170L
asVbook
p1056
(lp1057
I1
aI41616
aL170L
asS'board'
p1058
(lp1059
I2
aI64294
aL224L
asVexercis
p1060
(lp1061
I1
aI84326
aL171L
asS'natl'
p1062
(lp1063
I1
aI50754
aL170L
asVoilse
p1064
(lp1065
I1
aI64518
aL170L
asVwarrant
p1066
(lp1067
I1
aI84497
aL171L
asVearli
p1068
(lp1069
I3
aI5510
aL285L
asS'australia'
p1070
(lp1071
I1
aI118958
aL171L
asS'march'
p1072
(lp1073
I3
aI5965
aL284L
asS'around'
p1074
(lp1075
I1
aI6249
aL170L
asS'510.2'
p1076
(lp1077
I1
aI100973
aL171L
asS'period'
p1078
(lp1079
I3
aI6589
aL285L
asVlinse
p1080
(lp1081
I1
aI74088
aL170L
asS'five'
p1082
(lp1083
I3
aI80742
aL285L
asS'2nd'
p1084
(lp1085
I1
aI109449
aL171L
asVloss
p1086
(lp1087
I1
aI113266
aL171L
asS'2,986,000'
p1088
(lp1089
I1
aI113608
aL171L
asVlike
p1090
(lp1091
I1
aI103079
aL171L
asS"'ve"
p1092
(lp1093
I1
aI120326
aL171L
asVbenefit
p1094
(lp1095
I1
aI120668
aL171L
asS'reform'
p1096
(lp1097
I1
aI131099
aL171L
asVexceed
p1098
(lp1099
I2
aI85523
aL226L
asS'right'
p1100
(lp1101
I1
aI85749
aL171L
asS'old'
p1102
(lp1103
I1
aI10726
aL170L
asVsharehold
p1104
(lp1105
I2
aI77032
aL225L
asS'some'
p1106
(lp1107
I1
aI11406
aL170L
asS'3.7'
p1108
(lp1109
I1
aI71768
aL170L
asVintern
p1110
(lp1111
I1
aI109791
aL171L
asVexport
p1112
(lp1113
I2
aI12025
aL224L
asS'linoil'
p1114
(lp1115
I1
aI66728
aL170L
asS'for'
p1116
(lp1117
I7
aI14131
aL515L
asS'bottom'
p1118
(lp1119
I1
aI121865
aL171L
asS'per'
p1120
(lp1121
I5
aI15326
aL403L
asS'wheat/barley'
p1122
(lp1123
I1
aI53419
aL170L
asVunit
p1124
(lp1125
I1
aI124943
aL171L
asS'fob'
p1126
(lp1127
I1
aI33831
aL170L
asVcondit
p1128
(lp1129
I1
aI86830
aL171L
asS'He'
p1130
(lp1131
I1
aI122549
aL171L
asS'be'
p1132
(lp1133
I4
aI17487
aL347L
asS'wheat'
p1134
(lp1135
I2
aI53929
aL224L
asS'corn'
p1136
(lp1137
I1
aI53759
aL170L
asS'4.65'
p1138
(lp1139
I1
aI54323
aL170L
asS'440.3'
p1140
(lp1141
I1
aI101144
aL171L
asS'although'
p1142
(lp1143
I1
aI19134
aL170L
asS'from'
p1144
(lp1145
I4
aI78285
aL347L
asS'by'
p1146
(lp1147
I1
aI13558
aL170L
asS'stage'
p1148
(lp1149
I1
aI20160
aL170L
asS'25.1'
p1150
(lp1151
I1
aI67748
aL170L
asS'on'
p1152
(lp1153
I1
aI20330
aL170L
asS'quarter'
p1154
(lp1155
I2
aI105070
aL226L
asS'117.6'
p1156
(lp1157
I1
aI67918
aL170L
asS'of'
p1158
(lp1159
I8
aI21295
aL573L
asVslightli
p1160
(lp1161
I1
aI124088
aL171L
asS'23.6'
p1162
(lp1163
I1
aI68258
aL170L
asS'472.3'
p1164
(lp1165
I1
aI98574
aL171L
asVstand
p1166
(lp1167
I1
aI22888
aL170L
asS'act'
p1168
(lp1169
I1
aI124430
aL171L
asS'sept'
p1170
(lp1171
I1
aI23683
aL170L
asVprocessor
p1172
(lp1173
I2
aI23853
aL225L
asS'plan'
p1174
(lp1175
I1
aI94115
aL171L
asVroutin
p1176
(lp1177
I1
aI510
aL170L
asS'33.7'
p1178
(lp1179
I1
aI75107
aL170L
asS'80.8'
p1180
(lp1181
I1
aI68768
aL170L
asS'cocoa'
p1182
(lp1183
I1
aI25207
aL170L
asS'82.7'
p1184
(lp1185
I1
aI68938
aL170L
asS'39.9'
p1186
(lp1187
I1
aI69448
aL170L
asVensur
p1188
(lp1189
I1
aI88876
aL171L
asS'dean'
p1190
(lp1191
I1
aI121010
aL171L
asS'1986'
p1192
(lp1193
I5
aI56472
aL403L
asS'1987'
p1194
(lp1195
I1
aI78115
aL170L
asS'1984'
p1196
(lp1197
I1
aI56875
aL170L
asS'1985'
p1198
(lp1199
I1
aI97262
aL171L
asS'21.1'
p1200
(lp1201
I1
aI67578
aL170L
asS'2.55'
p1202
(lp1203
I1
aI57215
aL170L
asVarea
p1204
(lp1205
I1
aI21868
aL170L
asS'there'
p1206
(lp1207
I1
aI26798
aL170L
asVagricultur
p1208
(lp1209
I1
aI57555
aL170L
asS'1988'
p1210
(lp1211
I1
aI125456
aL171L
asVavail
p1212
(lp1213
I3
aI27533
aL284L
asS'1.53'
p1214
(lp1215
I1
aI125627
aL171L
asS'1.50'
p1216
(lp1217
I1
aI89560
aL171L
asS'1.56'
p1218
(lp1219
I1
aI58065
aL170L
asVinclud
p1220
(lp1221
I4
aI28327
aL347L
asS'brazilian'
p1222
(lp1223
I1
aI22548
aL170L
asS'forward'
p1224
(lp1225
I1
aI98232
aL171L
asS'1.59'
p1226
(lp1227
I1
aI116906
aL171L
asS'9.0'
p1228
(lp1229
I1
aI69958
aL170L
asS'753'
p1230
(lp1231
I1
aI29239
aL170L
asS'billion'
p1232
(lp1233
I2
aI116680
aL226L
asS'buy'
p1234
(lp1235
I1
aI90073
aL171L
asVreorgan
p1236
(lp1237
I1
aI90244
aL171L
asVdificulti
p1238
(lp1239
I1
aI29579
aL170L
asS'offer'
p1240
(lp1241
I1
aI40881
aL170L
asS'recommend'
p1242
(lp1243
I1
aI79545
aL170L
asS'jun'
p1244
(lp1245
I1
aI70298
aL170L
asS'jul'
p1246
(lp1247
I1
aI70468
aL170L
asS'1985/86'
p1248
(lp1249
I1
aI70638
aL170L
asS'gain'
p1250
(lp1251
I1
aI98916
aL171L
asS'line'
p1252
(lp1253
I1
aI126824
aL171L
asVha
p1254
(lp1255
I3
aI31954
aL285L
asS'with'
p1256
(lp1257
I2
aI30034
aL225L
asVanalyst
p1258
(lp1259
I1
aI126995
aL171L
asS'4,351'
p1260
(lp1261
I1
aI32409
aL170L
asS'4,350'
p1262
(lp1263
I1
aI32579
aL170L
asS'made'
p1264
(lp1265
I1
aI32749
aL170L
asVveget
p1266
(lp1267
I2
aI71938
aL225L
asS'up'
p1268
(lp1269
I2
aI91154
aL226L
asS'us'
p1270
(lp1271
I1
aI127337
aL171L
asS'4,104,000'
p1272
(lp1273
I1
aI113950
aL171L
asS'record'
p1274
(lp1275
I1
aI82164
aL170L
asS'below'
p1276
(lp1277
I1
aI107061
aL171L
asVlimit
p1278
(lp1279
I1
aI34286
aL170L
asS'cake'
p1280
(lp1281
I1
aI34740
aL170L
asS'3.2'
p1282
(lp1283
I1
aI72333
aL170L
asS'4,161.0'
p1284
(lp1285
I1
aI72503
aL170L
asS'4,450'
p1286
(lp1287
I1
aI35080
aL170L
asVconnect
p1288
(lp1289
I1
aI107232
aL171L
asVcovert
p1290
(lp1291
I1
aI36444
aL170L
asS'12.6'
p1292
(lp1293
I1
aI115483
aL171L
asS'``'
p1294
(lp1295
I1
aI126311
aL171L
asS'an'
p1296
(lp1297
I4
aI37472
aL346L
asS"''"
p1298
(lp1299
I1
aI128705
aL171L
asS'82'
p1300
(lp1301
I1
aI104160
aL171L
asS'as'
p1302
(lp1303
I5
aI37818
aL401L
asS'at'
p1304
(lp1305
I3
aI38219
aL284L
asS'our'
p1306
(lp1307
I1
aI121352
aL171L
asS'inc'
p1308
(lp1309
I7
aI77597
aL518L
asS'again'
p1310
(lp1311
I1
aI39861
aL170L
asS'107.3'
p1312
(lp1313
I1
aI73353
aL170L
asS'45'
p1314
(lp1315
I1
aI170
aL170L
asVdetail
p1316
(lp1317
I1
aI73693
aL170L
asS'40'
p1318
(lp1319
I2
aI92919
aL226L
asVoat
p1320
(lp1321
I1
aI60044
aL170L
asS'3.25'
p1322
(lp1323
I1
aI60214
aL170L
asVfutur
p1324
(lp1325
I2
aI73863
aL225L
asS'corn/sorghum'
p1326
(lp1327
I1
aI60384
aL170L
asS'151.1'
p1328
(lp1329
I1
aI112069
aL171L
asVmatur
p1330
(lp1331
I1
aI60724
aL170L
asVrepeat
p1332
(lp1333
I1
aI130073
aL171L
asS"'s"
p1334
(lp1335
I3
aI93658
aL286L
asS'march/april'
p1336
(lp1337
I1
aI17834
aL170L
asS'AM'
p1338
(lp1339
I1
aI112240
aL171L
asS'cobanco'
p1340
(lp1341
I1
aI98745
aL171L
asS'807,000'
p1342
(lp1343
I1
aI99087
aL171L
asS'fiscal'
p1344
(lp1345
I2
aI108026
aL226L
asVexperienc
p1346
(lp1347
I1
aI45648
aL170L
asS'111.8'
p1348
(lp1349
I1
aI76692
aL170L
asVtime
p1350
(lp1351
I2
aI28674
aL225L
asS'2,380'
p1352
(lp1353
I1
aI48037
aL170L
asVdecemb
p1354
(lp1355
I1
aI130586
aL171L
asS'12'
p1356
(lp1357
I2
aI76467
aL225L
asS'145.3'
p1358
(lp1359
I1
aI66218
aL170L
as.