(ilinked_list
LinkedList
p1
(dp2
S'head'
p3
(ilinked_list
Node
p4
(dp5
S'skip'
p6
NsS'data'
p7
I1
sS'next'
p8
NsbsS'tail'
p9
g4
sS'size'
p10
I1
sb.(ilinked_list
LinkedList
p1
(dp2
S'head'
p3
(ilinked_list
Node
p4
(dp5
S'skip'
p6
NsS'data'
p7
I1
sS'next'
p8
NsbsS'tail'
p9
g4
sS'size'
p10
I1
sb.(ilinked_list
LinkedList
p1
(dp2
S'head'
p3
(ilinked_list
Node
p4
(dp5
S'skip'
p6
NsS'data'
p7
I1
sS'next'
p8
NsbsS'tail'
p9
g4
sS'size'
p10
I1
sb.(ilinked_list
LinkedList
p1
(dp2
S'head'
p3
(ilinked_list
Node
p4
(dp5
S'skip'
p6
NsS'data'
p7
I1
sS'next'
p8
NsbsS'tail'
p9
g4
sS'size'
p10
I1
sb.(ilinked_list
LinkedList
p1
(dp2
S'head'
p3
(ilinked_list
Node
p4
(dp5
S'skip'
p6
NsS'data'
p7
I1
sS'next'
p8
NsbsS'tail'
p9
g4
sS'size'
p10
I1
sb.(ilinked_list
LinkedList
p1
(dp2
S'head'
p3
(ilinked_list
Node
p4
(dp5
S'skip'
p6
NsS'data'
p7
I1
sS'next'
p8
NsbsS'tail'
p9
g4
sS'size'
p10
I1
sb.(ilinked_list
LinkedList
p1
(dp2
S'head'
p3
(ilinked_list
Node
p4
(dp5
S'skip'
p6
NsS'data'
p7
I1
sS'next'
p8
NsbsS'tail'
p9
g4
sS'size'
p10
I1
sb.(ilinked_list
LinkedList
p1
(dp2
S'head'
p3
(ilinked_list
Node
p4
(dp5
S'skip'
p6
NsS'data'
p7
I1
sS'next'
p8
NsbsS'tail'
p9
g4
sS'size'
p10
I1
sb.(ilinked_list
LinkedList
p1
(dp2
S'head'
p3
(ilinked_list
Node
p4
(dp5
S'skip'
p6
NsS'data'
p7
I1
sS'next'
p8
NsbsS'tail'
p9
g4
sS'size'
p10
I1
sb.(ilinked_list
LinkedList
p1
(dp2
S'head'
p3
(ilinked_list
Node
p4
(dp5
S'skip'
p6
NsS'data'
p7
I1
sS'next'
p8
NsbsS'tail'
p9
g4
sS'size'
p10
I1
sb.(ilinked_list
LinkedList
p1
(dp2
S'head'
p3
(ilinked_list
Node
p4
(dp5
S'skip'
p6
NsS'data'
p7
I1
sS'next'
p8
NsbsS'tail'
p9
g4
sS'size'
p10
I1
sb.(ilinked_list
LinkedList
p1
(dp2
S'head'
p3
(ilinked_list
Node
p4
(dp5
S'skip'
p6
NsS'data'
p7
I1
sS'next'
p8
NsbsS'tail'
p9
g4
sS'size'
p10
I1
sb.(ilinked_list
LinkedList
p1
(dp2
S'head'
p3
(ilinked_list
Node
p4
(dp5
S'skip'
p6
NsS'data'
p7
I1
sS'next'
p8
NsbsS'tail'
p9
g4
sS'size'
p10
I1
sb.(ilinked_list
LinkedList
p1
(dp2
S'head'
p3
(ilinked_list
Node
p4
(dp5
S'skip'
p6
NsS'data'
p7
I1
sS'next'
p8
NsbsS'tail'
p9
g4
sS'size'
p10
I1
sb.(ilinked_list
LinkedList
p1
(dp2
S'head'
p3
(ilinked_list
Node
p4
(dp5
S'skip'
p6
NsS'data'
p7
I1
sS'next'
p8
NsbsS'tail'
p9
g4
sS'size'
p10
I1
sb.(ilinked_list
LinkedList
p1
(dp2
S'head'
p3
(ilinked_list
Node
p4
(dp5
S'skip'
p6
NsS'data'
p7
I1
sS'next'
p8
NsbsS'tail'
p9
g4
sS'size'
p10
I1
sb.(ilinked_list
LinkedList
p1
(dp2
S'head'
p3
(ilinked_list
Node
p4
(dp5
S'skip'
p6
NsS'data'
p7
I1
sS'next'
p8
NsbsS'tail'
p9
g4
sS'size'
p10
I1
sb.(ilinked_list
LinkedList
p1
(dp2
S'head'
p3
(ilinked_list
Node
p4
(dp5
S'skip'
p6
NsS'data'
p7
I1
sS'next'
p8
NsbsS'tail'
p9
g4
sS'size'
p10
I1
sb.(ilinked_list
LinkedList
p1
(dp2
S'head'
p3
(ilinked_list
Node
p4
(dp5
S'skip'
p6
(ilinked_list
Node
p7
(dp8
g6
(ilinked_list
Node
p9
(dp10
g6
NsS'data'
p11
I18
sS'next'
p12
Nsbsg11
I9
sg12
(ilinked_list
Node
p13
(dp14
g6
Nsg11
I10
sg12
g9
sbsbsg11
I1
sg12
(ilinked_list
Node
p15
(dp16
g6
Nsg11
I6
sg12
g7
sbsbsS'tail'
p17
g9
sS'size'
p18
I5
sb.(ilinked_list
LinkedList
p1
(dp2
S'head'
p3
(ilinked_list
Node
p4
(dp5
S'skip'
p6
NsS'data'
p7
I1
sS'next'
p8
NsbsS'tail'
p9
g4
sS'size'
p10
I1
sb.(ilinked_list
LinkedList
p1
(dp2
S'head'
p3
(ilinked_list
Node
p4
(dp5
S'skip'
p6
NsS'data'
p7
I1
sS'next'
p8
NsbsS'tail'
p9
g4
sS'size'
p10
I1
sb.(ilinked_list
LinkedList
p1
(dp2
S'head'
p3
(ilinked_list
Node
p4
(dp5
S'skip'
p6
NsS'data'
p7
I1
sS'next'
p8
NsbsS'tail'
p9
g4
sS'size'
p10
I1
sb.(ilinked_list
LinkedList
p1
(dp2
S'head'
p3
(ilinked_list
Node
p4
(dp5
S'skip'
p6
(ilinked_list
Node
p7
(dp8
g6
NsS'data'
p9
I18
sS'next'
p10
Nsbsg9
I1
sg10
(ilinked_list
Node
p11
(dp12
g6
Nsg9
I12
sg10
g7
sbsbsS'tail'
p13
g7
sS'size'
p14
I3
sb.(ilinked_list
LinkedList
p1
(dp2
S'head'
p3
(ilinked_list
Node
p4
(dp5
S'skip'
p6
(ilinked_list
Node
p7
(dp8
g6
(ilinked_list
Node
p9
(dp10
g6
NsS'data'
p11
I18
sS'next'
p12
Nsbsg11
I10
sg12
(ilinked_list
Node
p13
(dp14
g6
Nsg11
I12
sg12
g9
sbsbsg11
I1
sg12
(ilinked_list
Node
p15
(dp16
g6
Nsg11
I6
sg12
(ilinked_list
Node
p17
(dp18
g6
Nsg11
I9
sg12
g7
sbsbsbsS'tail'
p19
g9
sS'size'
p20
I6
sb.(ilinked_list
LinkedList
p1
(dp2
S'head'
p3
(ilinked_list
Node
p4
(dp5
S'skip'
p6
NsS'data'
p7
I1
sS'next'
p8
NsbsS'tail'
p9
g4
sS'size'
p10
I1
sb.(ilinked_list
LinkedList
p1
(dp2
S'head'
p3
(ilinked_list
Node
p4
(dp5
S'skip'
p6
NsS'data'
p7
I1
sS'next'
p8
NsbsS'tail'
p9
g4
sS'size'
p10
I1
sb.(ilinked_list
LinkedList
p1
(dp2
S'head'
p3
(ilinked_list
Node
p4
(dp5
S'skip'
p6
(ilinked_list
Node
p7
(dp8
g6
NsS'data'
p9
I10
sS'next'
p10
Nsbsg9
I1
sg10
(ilinked_list
Node
p11
(dp12
g6
Nsg9
I6
sg10
g7
sbsbsS'tail'
p13
g7
sS'size'
p14
I3
sb.(ilinked_list
LinkedList
p1
(dp2
S'head'
p3
(ilinked_list
Node
p4
(dp5
S'skip'
p6
NsS'data'
p7
I1
sS'next'
p8
NsbsS'tail'
p9
g4
sS'size'
p10
I1
sb.(ilinked_list
LinkedList
p1
(dp2
S'head'
p3
(ilinked_list
Node
p4
(dp5
S'skip'
p6
(ilinked_list
Node
p7
(dp8
g6
NsS'data'
p9
I18
sS'next'
p10
Nsbsg9
I1
sg10
(ilinked_list
Node
p11
(dp12
g6
Nsg9
I12
sg10
g7
sbsbsS'tail'
p13
g7
sS'size'
p14
I3
sb.(ilinked_list
LinkedList
p1
(dp2
S'head'
p3
(ilinked_list
Node
p4
(dp5
S'skip'
p6
NsS'data'
p7
I1
sS'next'
p8
NsbsS'tail'
p9
g4
sS'size'
p10
I1
sb.(ilinked_list
LinkedList
p1
(dp2
S'head'
p3
(ilinked_list
Node
p4
(dp5
S'skip'
p6
(ilinked_list
Node
p7
(dp8
g6
NsS'data'
p9
I12
sS'next'
p10
Nsbsg9
I1
sg10
(ilinked_list
Node
p11
(dp12
g6
Nsg9
I6
sg10
g7
sbsbsS'tail'
p13
g7
sS'size'
p14
I3
sb.(ilinked_list
LinkedList
p1
(dp2
S'head'
p3
(ilinked_list
Node
p4
(dp5
S'skip'
p6
NsS'data'
p7
I1
sS'next'
p8
NsbsS'tail'
p9
g4
sS'size'
p10
I1
sb.(ilinked_list
LinkedList
p1
(dp2
S'head'
p3
(ilinked_list
Node
p4
(dp5
S'skip'
p6
NsS'data'
p7
I1
sS'next'
p8
NsbsS'tail'
p9
g4
sS'size'
p10
I1
sb.(ilinked_list
LinkedList
p1
(dp2
S'head'
p3
(ilinked_list
Node
p4
(dp5
S'skip'
p6
(ilinked_list
Node
p7
(dp8
g6
NsS'data'
p9
I18
sS'next'
p10
Nsbsg9
I1
sg10
(ilinked_list
Node
p11
(dp12
g6
Nsg9
I13
sg10
g7
sbsbsS'tail'
p13
g7
sS'size'
p14
I3
sb.(ilinked_list
LinkedList
p1
(dp2
S'head'
p3
(ilinked_list
Node
p4
(dp5
S'skip'
p6
NsS'data'
p7
I1
sS'next'
p8
NsbsS'tail'
p9
g4
sS'size'
p10
I1
sb.(ilinked_list
LinkedList
p1
(dp2
S'head'
p3
(ilinked_list
Node
p4
(dp5
S'skip'
p6
NsS'data'
p7
I1
sS'next'
p8
NsbsS'tail'
p9
g4
sS'size'
p10
I1
sb.(ilinked_list
LinkedList
p1
(dp2
S'head'
p3
(ilinked_list
Node
p4
(dp5
S'skip'
p6
NsS'data'
p7
I1
sS'next'
p8
(ilinked_list
Node
p9
(dp10
g6
Nsg7
I6
sg8
NsbsbsS'tail'
p11
g9
sS'size'
p12
I2
sb.(ilinked_list
LinkedList
p1
(dp2
S'head'
p3
(ilinked_list
Node
p4
(dp5
S'skip'
p6
(ilinked_list
Node
p7
(dp8
g6
NsS'data'
p9
I11
sS'next'
p10
Nsbsg9
I1
sg10
(ilinked_list
Node
p11
(dp12
g6
Nsg9
I10
sg10
g7
sbsbsS'tail'
p13
g7
sS'size'
p14
I3
sb.(ilinked_list
LinkedList
p1
(dp2
S'head'
p3
(ilinked_list
Node
p4
(dp5
S'skip'
p6
NsS'data'
p7
I1
sS'next'
p8
NsbsS'tail'
p9
g4
sS'size'
p10
I1
sb.(ilinked_list
LinkedList
p1
(dp2
S'head'
p3
(ilinked_list
Node
p4
(dp5
S'skip'
p6
NsS'data'
p7
I1
sS'next'
p8
NsbsS'tail'
p9
g4
sS'size'
p10
I1
sb.(ilinked_list
LinkedList
p1
(dp2
S'head'
p3
(ilinked_list
Node
p4
(dp5
S'skip'
p6
NsS'data'
p7
I1
sS'next'
p8
NsbsS'tail'
p9
g4
sS'size'
p10
I1
sb.(ilinked_list
LinkedList
p1
(dp2
S'head'
p3
(ilinked_list
Node
p4
(dp5
S'skip'
p6
NsS'data'
p7
I1
sS'next'
p8
NsbsS'tail'
p9
g4
sS'size'
p10
I1
sb.(ilinked_list
LinkedList
p1
(dp2
S'head'
p3
(ilinked_list
Node
p4
(dp5
S'skip'
p6
NsS'data'
p7
I1
sS'next'
p8
NsbsS'tail'
p9
g4
sS'size'
p10
I1
sb.(ilinked_list
LinkedList
p1
(dp2
S'head'
p3
(ilinked_list
Node
p4
(dp5
S'skip'
p6
NsS'data'
p7
I1
sS'next'
p8
(ilinked_list
Node
p9
(dp10
g6
Nsg7
I5
sg8
NsbsbsS'tail'
p11
g9
sS'size'
p12
I2
sb.(ilinked_list
LinkedList
p1
(dp2
S'head'
p3
(ilinked_list
Node
p4
(dp5
S'skip'
p6
NsS'data'
p7
I1
sS'next'
p8
NsbsS'tail'
p9
g4
sS'size'
p10
I1
sb.(ilinked_list
LinkedList
p1
(dp2
S'head'
p3
(ilinked_list
Node
p4
(dp5
S'skip'
p6
NsS'data'
p7
I1
sS'next'
p8
NsbsS'tail'
p9
g4
sS'size'
p10
I1
sb.(ilinked_list
LinkedList
p1
(dp2
S'head'
p3
(ilinked_list
Node
p4
(dp5
S'skip'
p6
(ilinked_list
Node
p7
(dp8
g6
(ilinked_list
Node
p9
(dp10
g6
NsS'data'
p11
I12
sS'next'
p12
Nsbsg11
I6
sg12
g9
sbsg11
I1
sg12
(ilinked_list
Node
p13
(dp14
g6
Nsg11
I5
sg12
g7
sbsbsS'tail'
p15
g9
sS'size'
p16
I4
sb.(ilinked_list
LinkedList
p1
(dp2
S'head'
p3
(ilinked_list
Node
p4
(dp5
S'skip'
p6
NsS'data'
p7
I1
sS'next'
p8
(ilinked_list
Node
p9
(dp10
g6
Nsg7
I5
sg8
NsbsbsS'tail'
p11
g9
sS'size'
p12
I2
sb.(ilinked_list
LinkedList
p1
(dp2
S'head'
p3
(ilinked_list
Node
p4
(dp5
S'skip'
p6
NsS'data'
p7
I1
sS'next'
p8
NsbsS'tail'
p9
g4
sS'size'
p10
I1
sb.(ilinked_list
LinkedList
p1
(dp2
S'head'
p3
(ilinked_list
Node
p4
(dp5
S'skip'
p6
NsS'data'
p7
I1
sS'next'
p8
NsbsS'tail'
p9
g4
sS'size'
p10
I1
sb.(ilinked_list
LinkedList
p1
(dp2
S'head'
p3
(ilinked_list
Node
p4
(dp5
S'skip'
p6
NsS'data'
p7
I1
sS'next'
p8
NsbsS'tail'
p9
g4
sS'size'
p10
I1
sb.(ilinked_list
LinkedList
p1
(dp2
S'head'
p3
(ilinked_list
Node
p4
(dp5
S'skip'
p6
NsS'data'
p7
I1
sS'next'
p8
NsbsS'tail'
p9
g4
sS'size'
p10
I1
sb.(ilinked_list
LinkedList
p1
(dp2
S'head'
p3
(ilinked_list
Node
p4
(dp5
S'skip'
p6
NsS'data'
p7
I1
sS'next'
p8
NsbsS'tail'
p9
g4
sS'size'
p10
I1
sb.(ilinked_list
LinkedList
p1
(dp2
S'head'
p3
(ilinked_list
Node
p4
(dp5
S'skip'
p6
NsS'data'
p7
I1
sS'next'
p8
NsbsS'tail'
p9
g4
sS'size'
p10
I1
sb.(ilinked_list
LinkedList
p1
(dp2
S'head'
p3
(ilinked_list
Node
p4
(dp5
S'skip'
p6
NsS'data'
p7
I1
sS'next'
p8
NsbsS'tail'
p9
g4
sS'size'
p10
I1
sb.(ilinked_list
LinkedList
p1
(dp2
S'head'
p3
(ilinked_list
Node
p4
(dp5
S'skip'
p6
NsS'data'
p7
I1
sS'next'
p8
NsbsS'tail'
p9
g4
sS'size'
p10
I1
sb.(ilinked_list
LinkedList
p1
(dp2
S'head'
p3
(ilinked_list
Node
p4
(dp5
S'skip'
p6
NsS'data'
p7
I1
sS'next'
p8
NsbsS'tail'
p9
g4
sS'size'
p10
I1
sb.(ilinked_list
LinkedList
p1
(dp2
S'head'
p3
(ilinked_list
Node
p4
(dp5
S'skip'
p6
NsS'data'
p7
I1
sS'next'
p8
NsbsS'tail'
p9
g4
sS'size'
p10
I1
sb.(ilinked_list
LinkedList
p1
(dp2
S'head'
p3
(ilinked_list
Node
p4
(dp5
S'skip'
p6
NsS'data'
p7
I1
sS'next'
p8
NsbsS'tail'
p9
g4
sS'size'
p10
I1
sb.(ilinked_list
LinkedList
p1
(dp2
S'head'
p3
(ilinked_list
Node
p4
(dp5
S'skip'
p6
NsS'data'
p7
I1
sS'next'
p8
(ilinked_list
Node
p9
(dp10
g6
Nsg7
I10
sg8
NsbsbsS'tail'
p11
g9
sS'size'
p12
I2
sb.(ilinked_list
LinkedList
p1
(dp2
S'head'
p3
(ilinked_list
Node
p4
(dp5
S'skip'
p6
NsS'data'
p7
I1
sS'next'
p8
(ilinked_list
Node
p9
(dp10
g6
Nsg7
I6
sg8
NsbsbsS'tail'
p11
g9
sS'size'
p12
I2
sb.(ilinked_list
LinkedList
p1
(dp2
S'head'
p3
(ilinked_list
Node
p4
(dp5
S'skip'
p6
NsS'data'
p7
I1
sS'next'
p8
(ilinked_list
Node
p9
(dp10
g6
Nsg7
I6
sg8
NsbsbsS'tail'
p11
g9
sS'size'
p12
I2
sb.(ilinked_list
LinkedList
p1
(dp2
S'head'
p3
(ilinked_list
Node
p4
(dp5
S'skip'
p6
NsS'data'
p7
I1
sS'next'
p8
(ilinked_list
Node
p9
(dp10
g6
Nsg7
I10
sg8
NsbsbsS'tail'
p11
g9
sS'size'
p12
I2
sb.(ilinked_list
LinkedList
p1
(dp2
S'head'
p3
(ilinked_list
Node
p4
(dp5
S'skip'
p6
(ilinked_list
Node
p7
(dp8
g6
(ilinked_list
Node
p9
(dp10
g6
NsS'data'
p11
I18
sS'next'
p12
Nsbsg11
I11
sg12
(ilinked_list
Node
p13
(dp14
g6
Nsg11
I12
sg12
g9
sbsbsg11
I1
sg12
(ilinked_list
Node
p15
(dp16
g6
Nsg11
I10
sg12
g7
sbsbsS'tail'
p17
g9
sS'size'
p18
I5
sb.(ilinked_list
LinkedList
p1
(dp2
S'head'
p3
(ilinked_list
Node
p4
(dp5
S'skip'
p6
NsS'data'
p7
I1
sS'next'
p8
NsbsS'tail'
p9
g4
sS'size'
p10
I1
sb.(ilinked_list
LinkedList
p1
(dp2
S'head'
p3
(ilinked_list
Node
p4
(dp5
S'skip'
p6
NsS'data'
p7
I1
sS'next'
p8
NsbsS'tail'
p9
g4
sS'size'
p10
I1
sb.(ilinked_list
LinkedList
p1
(dp2
S'head'
p3
(ilinked_list
Node
p4
(dp5
S'skip'
p6
NsS'data'
p7
I1
sS'next'
p8
NsbsS'tail'
p9
g4
sS'size'
p10
I1
sb.(ilinked_list
LinkedList
p1
(dp2
S'head'
p3
(ilinked_list
Node
p4
(dp5
S'skip'
p6
NsS'data'
p7
I1
sS'next'
p8
NsbsS'tail'
p9
g4
sS'size'
p10
I1
sb.(ilinked_list
LinkedList
p1
(dp2
S'head'
p3
(ilinked_list
Node
p4
(dp5
S'skip'
p6
NsS'data'
p7
I1
sS'next'
p8
NsbsS'tail'
p9
g4
sS'size'
p10
I1
sb.(ilinked_list
LinkedList
p1
(dp2
S'head'
p3
(ilinked_list
Node
p4
(dp5
S'skip'
p6
(ilinked_list
Node
p7
(dp8
g6
(ilinked_list
Node
p9
(dp10
g6
NsS'data'
p11
I18
sS'next'
p12
Nsbsg11
I10
sg12
(ilinked_list
Node
p13
(dp14
g6
Nsg11
I12
sg12
g9
sbsbsg11
I1
sg12
(ilinked_list
Node
p15
(dp16
g6
Nsg11
I9
sg12
g7
sbsbsS'tail'
p17
g9
sS'size'
p18
I5
sb.(ilinked_list
LinkedList
p1
(dp2
S'head'
p3
(ilinked_list
Node
p4
(dp5
S'skip'
p6
(ilinked_list
Node
p7
(dp8
g6
(ilinked_list
Node
p9
(dp10
g6
NsS'data'
p11
I18
sS'next'
p12
Nsbsg11
I9
sg12
(ilinked_list
Node
p13
(dp14
g6
Nsg11
I10
sg12
(ilinked_list
Node
p15
(dp16
g6
Nsg11
I13
sg12
g9
sbsbsbsg11
I1
sg12
(ilinked_list
Node
p17
(dp18
g6
Nsg11
I5
sg12
(ilinked_list
Node
p19
(dp20
g6
Nsg11
I6
sg12
g7
sbsbsbsS'tail'
p21
g9
sS'size'
p22
I7
sb.(ilinked_list
LinkedList
p1
(dp2
S'head'
p3
(ilinked_list
Node
p4
(dp5
S'skip'
p6
NsS'data'
p7
I1
sS'next'
p8
NsbsS'tail'
p9
g4
sS'size'
p10
I1
sb.(ilinked_list
LinkedList
p1
(dp2
S'head'
p3
(ilinked_list
Node
p4
(dp5
S'skip'
p6
NsS'data'
p7
I1
sS'next'
p8
NsbsS'tail'
p9
g4
sS'size'
p10
I1
sb.(ilinked_list
LinkedList
p1
(dp2
S'head'
p3
(ilinked_list
Node
p4
(dp5
S'skip'
p6
NsS'data'
p7
I1
sS'next'
p8
NsbsS'tail'
p9
g4
sS'size'
p10
I1
sb.(ilinked_list
LinkedList
p1
(dp2
S'head'
p3
(ilinked_list
Node
p4
(dp5
S'skip'
p6
NsS'data'
p7
I1
sS'next'
p8
NsbsS'tail'
p9
g4
sS'size'
p10
I1
sb.(ilinked_list
LinkedList
p1
(dp2
S'head'
p3
(ilinked_list
Node
p4
(dp5
S'skip'
p6
(ilinked_list
Node
p7
(dp8
g6
(ilinked_list
Node
p9
(dp10
g6
NsS'data'
p11
I13
sS'next'
p12
Nsbsg11
I10
sg12
(ilinked_list
Node
p13
(dp14
g6
Nsg11
I11
sg12
g9
sbsbsg11
I1
sg12
(ilinked_list
Node
p15
(dp16
g6
Nsg11
I5
sg12
g7
sbsbsS'tail'
p17
g9
sS'size'
p18
I5
sb.(ilinked_list
LinkedList
p1
(dp2
S'head'
p3
(ilinked_list
Node
p4
(dp5
S'skip'
p6
(ilinked_list
Node
p7
(dp8
g6
NsS'data'
p9
I12
sS'next'
p10
Nsbsg9
I1
sg10
(ilinked_list
Node
p11
(dp12
g6
Nsg9
I10
sg10
g7
sbsbsS'tail'
p13
g7
sS'size'
p14
I3
sb.(ilinked_list
LinkedList
p1
(dp2
S'head'
p3
(ilinked_list
Node
p4
(dp5
S'skip'
p6
(ilinked_list
Node
p7
(dp8
g6
(ilinked_list
Node
p9
(dp10
g6
NsS'data'
p11
I18
sS'next'
p12
Nsbsg11
I12
sg12
(ilinked_list
Node
p13
(dp14
g6
Nsg11
I14
sg12
g9
sbsbsg11
I1
sg12
(ilinked_list
Node
p15
(dp16
g6
Nsg11
I10
sg12
(ilinked_list
Node
p17
(dp18
g6
Nsg11
I11
sg12
g7
sbsbsbsS'tail'
p19
g9
sS'size'
p20
I6
sb.(ilinked_list
LinkedList
p1
(dp2
S'head'
p3
(ilinked_list
Node
p4
(dp5
S'skip'
p6
NsS'data'
p7
I1
sS'next'
p8
(ilinked_list
Node
p9
(dp10
g6
Nsg7
I6
sg8
NsbsbsS'tail'
p11
g9
sS'size'
p12
I2
sb.(ilinked_list
LinkedList
p1
(dp2
S'head'
p3
(ilinked_list
Node
p4
(dp5
S'skip'
p6
NsS'data'
p7
I1
sS'next'
p8
NsbsS'tail'
p9
g4
sS'size'
p10
I1
sb.(ilinked_list
LinkedList
p1
(dp2
S'head'
p3
(ilinked_list
Node
p4
(dp5
S'skip'
p6
NsS'data'
p7
I1
sS'next'
p8
(ilinked_list
Node
p9
(dp10
g6
Nsg7
I6
sg8
NsbsbsS'tail'
p11
g9
sS'size'
p12
I2
sb.(ilinked_list
LinkedList
p1
(dp2
S'head'
p3
(ilinked_list
Node
p4
(dp5
S'skip'
p6
NsS'data'
p7
I1
sS'next'
p8
NsbsS'tail'
p9
g4
sS'size'
p10
I1
sb.(ilinked_list
LinkedList
p1
(dp2
S'head'
p3
(ilinked_list
Node
p4
(dp5
S'skip'
p6
NsS'data'
p7
I1
sS'next'
p8
(ilinked_list
Node
p9
(dp10
g6
Nsg7
I5
sg8
NsbsbsS'tail'
p11
g9
sS'size'
p12
I2
sb.(ilinked_list
LinkedList
p1
(dp2
S'head'
p3
(ilinked_list
Node
p4
(dp5
S'skip'
p6
(ilinked_list
Node
p7
(dp8
g6
(ilinked_list
Node
p9
(dp10
g6
NsS'data'
p11
I18
sS'next'
p12
Nsbsg11
I12
sg12
g9
sbsg11
I1
sg12
(ilinked_list
Node
p13
(dp14
g6
Nsg11
I10
sg12
g7
sbsbsS'tail'
p15
g9
sS'size'
p16
I4
sb.(ilinked_list
LinkedList
p1
(dp2
S'head'
p3
(ilinked_list
Node
p4
(dp5
S'skip'
p6
NsS'data'
p7
I1
sS'next'
p8
NsbsS'tail'
p9
g4
sS'size'
p10
I1
sb.(ilinked_list
LinkedList
p1
(dp2
S'head'
p3
(ilinked_list
Node
p4
(dp5
S'skip'
p6
NsS'data'
p7
I1
sS'next'
p8
(ilinked_list
Node
p9
(dp10
g6
Nsg7
I18
sg8
NsbsbsS'tail'
p11
g9
sS'size'
p12
I2
sb.(ilinked_list
LinkedList
p1
(dp2
S'head'
p3
(ilinked_list
Node
p4
(dp5
S'skip'
p6
NsS'data'
p7
I1
sS'next'
p8
NsbsS'tail'
p9
g4
sS'size'
p10
I1
sb.(ilinked_list
LinkedList
p1
(dp2
S'head'
p3
(ilinked_list
Node
p4
(dp5
S'skip'
p6
NsS'data'
p7
I1
sS'next'
p8
(ilinked_list
Node
p9
(dp10
g6
Nsg7
I10
sg8
NsbsbsS'tail'
p11
g9
sS'size'
p12
I2
sb.(ilinked_list
LinkedList
p1
(dp2
S'head'
p3
(ilinked_list
Node
p4
(dp5
S'skip'
p6
NsS'data'
p7
I1
sS'next'
p8
NsbsS'tail'
p9
g4
sS'size'
p10
I1
sb.(ilinked_list
LinkedList
p1
(dp2
S'head'
p3
(ilinked_list
Node
p4
(dp5
S'skip'
p6
NsS'data'
p7
I1
sS'next'
p8
NsbsS'tail'
p9
g4
sS'size'
p10
I1
sb.(ilinked_list
LinkedList
p1
(dp2
S'head'
p3
(ilinked_list
Node
p4
(dp5
S'skip'
p6
NsS'data'
p7
I1
sS'next'
p8
NsbsS'tail'
p9
g4
sS'size'
p10
I1
sb.(ilinked_list
LinkedList
p1
(dp2
S'head'
p3
(ilinked_list
Node
p4
(dp5
S'skip'
p6
NsS'data'
p7
I1
sS'next'
p8
NsbsS'tail'
p9
g4
sS'size'
p10
I1
sb.(ilinked_list
LinkedList
p1
(dp2
S'head'
p3
(ilinked_list
Node
p4
(dp5
S'skip'
p6
NsS'data'
p7
I1
sS'next'
p8
NsbsS'tail'
p9
g4
sS'size'
p10
I1
sb.(ilinked_list
LinkedList
p1
(dp2
S'head'
p3
(ilinked_list
Node
p4
(dp5
S'skip'
p6
NsS'data'
p7
I1
sS'next'
p8
NsbsS'tail'
p9
g4
sS'size'
p10
I1
sb.(ilinked_list
LinkedList
p1
(dp2
S'head'
p3
(ilinked_list
Node
p4
(dp5
S'skip'
p6
NsS'data'
p7
I1
sS'next'
p8
NsbsS'tail'
p9
g4
sS'size'
p10
I1
sb.(ilinked_list
LinkedList
p1
(dp2
S'head'
p3
(ilinked_list
Node
p4
(dp5
S'skip'
p6
(ilinked_list
Node
p7
(dp8
g6
(ilinked_list
Node
p9
(dp10
g6
NsS'data'
p11
I18
sS'next'
p12
Nsbsg11
I13
sg12
g9
sbsg11
I1
sg12
(ilinked_list
Node
p13
(dp14
g6
Nsg11
I5
sg12
g7
sbsbsS'tail'
p15
g9
sS'size'
p16
I4
sb.(ilinked_list
LinkedList
p1
(dp2
S'head'
p3
(ilinked_list
Node
p4
(dp5
S'skip'
p6
NsS'data'
p7
I1
sS'next'
p8
NsbsS'tail'
p9
g4
sS'size'
p10
I1
sb.(ilinked_list
LinkedList
p1
(dp2
S'head'
p3
(ilinked_list
Node
p4
(dp5
S'skip'
p6
NsS'data'
p7
I1
sS'next'
p8
NsbsS'tail'
p9
g4
sS'size'
p10
I1
sb.(ilinked_list
LinkedList
p1
(dp2
S'head'
p3
(ilinked_list
Node
p4
(dp5
S'skip'
p6
NsS'data'
p7
I1
sS'next'
p8
NsbsS'tail'
p9
g4
sS'size'
p10
I1
sb.(ilinked_list
LinkedList
p1
(dp2
S'head'
p3
(ilinked_list
Node
p4
(dp5
S'skip'
p6
(ilinked_list
Node
p7
(dp8
g6
NsS'data'
p9
I18
sS'next'
p10
Nsbsg9
I1
sg10
(ilinked_list
Node
p11
(dp12
g6
Nsg9
I12
sg10
g7
sbsbsS'tail'
p13
g7
sS'size'
p14
I3
sb.(ilinked_list
LinkedList
p1
(dp2
S'head'
p3
(ilinked_list
Node
p4
(dp5
S'skip'
p6
NsS'data'
p7
I1
sS'next'
p8
NsbsS'tail'
p9
g4
sS'size'
p10
I1
sb.(ilinked_list
LinkedList
p1
(dp2
S'head'
p3
(ilinked_list
Node
p4
(dp5
S'skip'
p6
NsS'data'
p7
I1
sS'next'
p8
NsbsS'tail'
p9
g4
sS'size'
p10
I1
sb.(ilinked_list
LinkedList
p1
(dp2
S'head'
p3
(ilinked_list
Node
p4
(dp5
S'skip'
p6
(ilinked_list
Node
p7
(dp8
g6
(ilinked_list
Node
p9
(dp10
g6
NsS'data'
p11
I18
sS'next'
p12
Nsbsg11
I11
sg12
(ilinked_list
Node
p13
(dp14
g6
Nsg11
I12
sg12
(ilinked_list
Node
p15
(dp16
g6
Nsg11
I13
sg12
g9
sbsbsbsg11
I1
sg12
(ilinked_list
Node
p17
(dp18
g6
Nsg11
I6
sg12
(ilinked_list
Node
p19
(dp20
g6
Nsg11
I9
sg12
(ilinked_list
Node
p21
(dp22
g6
Nsg11
I10
sg12
g7
sbsbsbsbsS'tail'
p23
g9
sS'size'
p24
I8
sb.(ilinked_list
LinkedList
p1
(dp2
S'head'
p3
(ilinked_list
Node
p4
(dp5
S'skip'
p6
NsS'data'
p7
I1
sS'next'
p8
NsbsS'tail'
p9
g4
sS'size'
p10
I1
sb.(ilinked_list
LinkedList
p1
(dp2
S'head'
p3
(ilinked_list
Node
p4
(dp5
S'skip'
p6
NsS'data'
p7
I1
sS'next'
p8
NsbsS'tail'
p9
g4
sS'size'
p10
I1
sb.(ilinked_list
LinkedList
p1
(dp2
S'head'
p3
(ilinked_list
Node
p4
(dp5
S'skip'
p6
NsS'data'
p7
I1
sS'next'
p8
NsbsS'tail'
p9
g4
sS'size'
p10
I1
sb.(ilinked_list
LinkedList
p1
(dp2
S'head'
p3
(ilinked_list
Node
p4
(dp5
S'skip'
p6
NsS'data'
p7
I1
sS'next'
p8
NsbsS'tail'
p9
g4
sS'size'
p10
I1
sb.(ilinked_list
LinkedList
p1
(dp2
S'head'
p3
(ilinked_list
Node
p4
(dp5
S'skip'
p6
NsS'data'
p7
I1
sS'next'
p8
NsbsS'tail'
p9
g4
sS'size'
p10
I1
sb.(ilinked_list
LinkedList
p1
(dp2
S'head'
p3
(ilinked_list
Node
p4
(dp5
S'skip'
p6
NsS'data'
p7
I1
sS'next'
p8
NsbsS'tail'
p9
g4
sS'size'
p10
I1
sb.(ilinked_list
LinkedList
p1
(dp2
S'head'
p3
(ilinked_list
Node
p4
(dp5
S'skip'
p6
NsS'data'
p7
I1
sS'next'
p8
NsbsS'tail'
p9
g4
sS'size'
p10
I1
sb.(ilinked_list
LinkedList
p1
(dp2
S'head'
p3
(ilinked_list
Node
p4
(dp5
S'skip'
p6
NsS'data'
p7
I1
sS'next'
p8
NsbsS'tail'
p9
g4
sS'size'
p10
I1
sb.(ilinked_list
LinkedList
p1
(dp2
S'head'
p3
(ilinked_list
Node
p4
(dp5
S'skip'
p6
(ilinked_list
Node
p7
(dp8
g6
NsS'data'
p9
I18
sS'next'
p10
Nsbsg9
I1
sg10
(ilinked_list
Node
p11
(dp12
g6
Nsg9
I10
sg10
g7
sbsbsS'tail'
p13
g7
sS'size'
p14
I3
sb.(ilinked_list
LinkedList
p1
(dp2
S'head'
p3
(ilinked_list
Node
p4
(dp5
S'skip'
p6
NsS'data'
p7
I1
sS'next'
p8
NsbsS'tail'
p9
g4
sS'size'
p10
I1
sb.(ilinked_list
LinkedList
p1
(dp2
S'head'
p3
(ilinked_list
Node
p4
(dp5
S'skip'
p6
NsS'data'
p7
I1
sS'next'
p8
NsbsS'tail'
p9
g4
sS'size'
p10
I1
sb.(ilinked_list
LinkedList
p1
(dp2
S'head'
p3
(ilinked_list
Node
p4
(dp5
S'skip'
p6
NsS'data'
p7
I1
sS'next'
p8
(ilinked_list
Node
p9
(dp10
g6
Nsg7
I18
sg8
NsbsbsS'tail'
p11
g9
sS'size'
p12
I2
sb.(ilinked_list
LinkedList
p1
(dp2
S'head'
p3
(ilinked_list
Node
p4
(dp5
S'skip'
p6
NsS'data'
p7
I1
sS'next'
p8
NsbsS'tail'
p9
g4
sS'size'
p10
I1
sb.(ilinked_list
LinkedList
p1
(dp2
S'head'
p3
(ilinked_list
Node
p4
(dp5
S'skip'
p6
NsS'data'
p7
I1
sS'next'
p8
NsbsS'tail'
p9
g4
sS'size'
p10
I1
sb.(ilinked_list
LinkedList
p1
(dp2
S'head'
p3
(ilinked_list
Node
p4
(dp5
S'skip'
p6
NsS'data'
p7
I1
sS'next'
p8
(ilinked_list
Node
p9
(dp10
g6
Nsg7
I12
sg8
NsbsbsS'tail'
p11
g9
sS'size'
p12
I2
sb.(ilinked_list
LinkedList
p1
(dp2
S'head'
p3
(ilinked_list
Node
p4
(dp5
S'skip'
p6
NsS'data'
p7
I1
sS'next'
p8
NsbsS'tail'
p9
g4
sS'size'
p10
I1
sb.(ilinked_list
LinkedList
p1
(dp2
S'head'
p3
(ilinked_list
Node
p4
(dp5
S'skip'
p6
NsS'data'
p7
I1
sS'next'
p8
NsbsS'tail'
p9
g4
sS'size'
p10
I1
sb.(ilinked_list
LinkedList
p1
(dp2
S'head'
p3
(ilinked_list
Node
p4
(dp5
S'skip'
p6
NsS'data'
p7
I1
sS'next'
p8
(ilinked_list
Node
p9
(dp10
g6
Nsg7
I6
sg8
NsbsbsS'tail'
p11
g9
sS'size'
p12
I2
sb.(ilinked_list
LinkedList
p1
(dp2
S'head'
p3
(ilinked_list
Node
p4
(dp5
S'skip'
p6
NsS'data'
p7
I1
sS'next'
p8
NsbsS'tail'
p9
g4
sS'size'
p10
I1
sb.(ilinked_list
LinkedList
p1
(dp2
S'head'
p3
(ilinked_list
Node
p4
(dp5
S'skip'
p6
NsS'data'
p7
I1
sS'next'
p8
NsbsS'tail'
p9
g4
sS'size'
p10
I1
sb.(ilinked_list
LinkedList
p1
(dp2
S'head'
p3
(ilinked_list
Node
p4
(dp5
S'skip'
p6
NsS'data'
p7
I1
sS'next'
p8
NsbsS'tail'
p9
g4
sS'size'
p10
I1
sb.(ilinked_list
LinkedList
p1
(dp2
S'head'
p3
(ilinked_list
Node
p4
(dp5
S'skip'
p6
NsS'data'
p7
I1
sS'next'
p8
NsbsS'tail'
p9
g4
sS'size'
p10
I1
sb.(ilinked_list
LinkedList
p1
(dp2
S'head'
p3
(ilinked_list
Node
p4
(dp5
S'skip'
p6
NsS'data'
p7
I1
sS'next'
p8
NsbsS'tail'
p9
g4
sS'size'
p10
I1
sb.(ilinked_list
LinkedList
p1
(dp2
S'head'
p3
(ilinked_list
Node
p4
(dp5
S'skip'
p6
NsS'data'
p7
I1
sS'next'
p8
NsbsS'tail'
p9
g4
sS'size'
p10
I1
sb.(ilinked_list
LinkedList
p1
(dp2
S'head'
p3
(ilinked_list
Node
p4
(dp5
S'skip'
p6
(ilinked_list
Node
p7
(dp8
g6
(ilinked_list
Node
p9
(dp10
g6
NsS'data'
p11
I18
sS'next'
p12
Nsbsg11
I12
sg12
g9
sbsg11
I1
sg12
(ilinked_list
Node
p13
(dp14
g6
Nsg11
I10
sg12
g7
sbsbsS'tail'
p15
g9
sS'size'
p16
I4
sb.(ilinked_list
LinkedList
p1
(dp2
S'head'
p3
(ilinked_list
Node
p4
(dp5
S'skip'
p6
NsS'data'
p7
I1
sS'next'
p8
(ilinked_list
Node
p9
(dp10
g6
Nsg7
I6
sg8
NsbsbsS'tail'
p11
g9
sS'size'
p12
I2
sb.(ilinked_list
LinkedList
p1
(dp2
S'head'
p3
(ilinked_list
Node
p4
(dp5
S'skip'
p6
NsS'data'
p7
I1
sS'next'
p8
NsbsS'tail'
p9
g4
sS'size'
p10
I1
sb.(ilinked_list
LinkedList
p1
(dp2
S'head'
p3
(ilinked_list
Node
p4
(dp5
S'skip'
p6
NsS'data'
p7
I1
sS'next'
p8
NsbsS'tail'
p9
g4
sS'size'
p10
I1
sb.(ilinked_list
LinkedList
p1
(dp2
S'head'
p3
(ilinked_list
Node
p4
(dp5
S'skip'
p6
NsS'data'
p7
I1
sS'next'
p8
NsbsS'tail'
p9
g4
sS'size'
p10
I1
sb.(ilinked_list
LinkedList
p1
(dp2
S'head'
p3
(ilinked_list
Node
p4
(dp5
S'skip'
p6
NsS'data'
p7
I1
sS'next'
p8
(ilinked_list
Node
p9
(dp10
g6
Nsg7
I18
sg8
NsbsbsS'tail'
p11
g9
sS'size'
p12
I2
sb.(ilinked_list
LinkedList
p1
(dp2
S'head'
p3
(ilinked_list
Node
p4
(dp5
S'skip'
p6
(ilinked_list
Node
p7
(dp8
g6
NsS'data'
p9
I11
sS'next'
p10
Nsbsg9
I1
sg10
(ilinked_list
Node
p11
(dp12
g6
Nsg9
I5
sg10
g7
sbsbsS'tail'
p13
g7
sS'size'
p14
I3
sb.(ilinked_list
LinkedList
p1
(dp2
S'head'
p3
(ilinked_list
Node
p4
(dp5
S'skip'
p6
NsS'data'
p7
I1
sS'next'
p8
NsbsS'tail'
p9
g4
sS'size'
p10
I1
sb.(ilinked_list
LinkedList
p1
(dp2
S'head'
p3
(ilinked_list
Node
p4
(dp5
S'skip'
p6
NsS'data'
p7
I1
sS'next'
p8
NsbsS'tail'
p9
g4
sS'size'
p10
I1
sb.(ilinked_list
LinkedList
p1
(dp2
S'head'
p3
(ilinked_list
Node
p4
(dp5
S'skip'
p6
NsS'data'
p7
I1
sS'next'
p8
NsbsS'tail'
p9
g4
sS'size'
p10
I1
sb.(ilinked_list
LinkedList
p1
(dp2
S'head'
p3
(ilinked_list
Node
p4
(dp5
S'skip'
p6
(ilinked_list
Node
p7
(dp8
g6
(ilinked_list
Node
p9
(dp10
g6
NsS'data'
p11
I12
sS'next'
p12
Nsbsg11
I11
sg12
g9
sbsg11
I1
sg12
(ilinked_list
Node
p13
(dp14
g6
Nsg11
I10
sg12
g7
sbsbsS'tail'
p15
g9
sS'size'
p16
I4
sb.(ilinked_list
LinkedList
p1
(dp2
S'head'
p3
(ilinked_list
Node
p4
(dp5
S'skip'
p6
NsS'data'
p7
I1
sS'next'
p8
(ilinked_list
Node
p9
(dp10
g6
Nsg7
I10
sg8
NsbsbsS'tail'
p11
g9
sS'size'
p12
I2
sb.(ilinked_list
LinkedList
p1
(dp2
S'head'
p3
(ilinked_list
Node
p4
(dp5
S'skip'
p6
NsS'data'
p7
I1
sS'next'
p8
NsbsS'tail'
p9
g4
sS'size'
p10
I1
sb.(ilinked_list
LinkedList
p1
(dp2
S'head'
p3
(ilinked_list
Node
p4
(dp5
S'skip'
p6
NsS'data'
p7
I1
sS'next'
p8
NsbsS'tail'
p9
g4
sS'size'
p10
I1
sb.(ilinked_list
LinkedList
p1
(dp2
S'head'
p3
(ilinked_list
Node
p4
(dp5
S'skip'
p6
NsS'data'
p7
I1
sS'next'
p8
NsbsS'tail'
p9
g4
sS'size'
p10
I1
sb.(ilinked_list
LinkedList
p1
(dp2
S'head'
p3
(ilinked_list
Node
p4
(dp5
S'skip'
p6
NsS'data'
p7
I1
sS'next'
p8
NsbsS'tail'
p9
g4
sS'size'
p10
I1
sb.(ilinked_list
LinkedList
p1
(dp2
S'head'
p3
(ilinked_list
Node
p4
(dp5
S'skip'
p6
NsS'data'
p7
I1
sS'next'
p8
NsbsS'tail'
p9
g4
sS'size'
p10
I1
sb.(ilinked_list
LinkedList
p1
(dp2
S'head'
p3
(ilinked_list
Node
p4
(dp5
S'skip'
p6
(ilinked_list
Node
p7
(dp8
g6
NsS'data'
p9
I18
sS'next'
p10
Nsbsg9
I1
sg10
(ilinked_list
Node
p11
(dp12
g6
Nsg9
I12
sg10
g7
sbsbsS'tail'
p13
g7
sS'size'
p14
I3
sb.(ilinked_list
LinkedList
p1
(dp2
S'head'
p3
(ilinked_list
Node
p4
(dp5
S'skip'
p6
NsS'data'
p7
I1
sS'next'
p8
(ilinked_list
Node
p9
(dp10
g6
Nsg7
I12
sg8
NsbsbsS'tail'
p11
g9
sS'size'
p12
I2
sb.(ilinked_list
LinkedList
p1
(dp2
S'head'
p3
(ilinked_list
Node
p4
(dp5
S'skip'
p6
NsS'data'
p7
I1
sS'next'
p8
NsbsS'tail'
p9
g4
sS'size'
p10
I1
sb.(ilinked_list
LinkedList
p1
(dp2
S'head'
p3
(ilinked_list
Node
p4
(dp5
S'skip'
p6
NsS'data'
p7
I1
sS'next'
p8
NsbsS'tail'
p9
g4
sS'size'
p10
I1
sb.(ilinked_list
LinkedList
p1
(dp2
S'head'
p3
(ilinked_list
Node
p4
(dp5
S'skip'
p6
NsS'data'
p7
I1
sS'next'
p8
(ilinked_list
Node
p9
(dp10
g6
Nsg7
I10
sg8
NsbsbsS'tail'
p11
g9
sS'size'
p12
I2
sb.(ilinked_list
LinkedList
p1
(dp2
S'head'
p3
(ilinked_list
Node
p4
(dp5
S'skip'
p6
NsS'data'
p7
I1
sS'next'
p8
NsbsS'tail'
p9
g4
sS'size'
p10
I1
sb.(ilinked_list
LinkedList
p1
(dp2
S'head'
p3
(ilinked_list
Node
p4
(dp5
S'skip'
p6
NsS'data'
p7
I1
sS'next'
p8
(ilinked_list
Node
p9
(dp10
g6
Nsg7
I12
sg8
NsbsbsS'tail'
p11
g9
sS'size'
p12
I2
sb.(ilinked_list
LinkedList
p1
(dp2
S'head'
p3
(ilinked_list
Node
p4
(dp5
S'skip'
p6
NsS'data'
p7
I1
sS'next'
p8
NsbsS'tail'
p9
g4
sS'size'
p10
I1
sb.(ilinked_list
LinkedList
p1
(dp2
S'head'
p3
(ilinked_list
Node
p4
(dp5
S'skip'
p6
NsS'data'
p7
I1
sS'next'
p8
NsbsS'tail'
p9
g4
sS'size'
p10
I1
sb.(ilinked_list
LinkedList
p1
(dp2
S'head'
p3
(ilinked_list
Node
p4
(dp5
S'skip'
p6
NsS'data'
p7
I1
sS'next'
p8
(ilinked_list
Node
p9
(dp10
g6
Nsg7
I10
sg8
NsbsbsS'tail'
p11
g9
sS'size'
p12
I2
sb.(ilinked_list
LinkedList
p1
(dp2
S'head'
p3
(ilinked_list
Node
p4
(dp5
S'skip'
p6
NsS'data'
p7
I1
sS'next'
p8
NsbsS'tail'
p9
g4
sS'size'
p10
I1
sb.(ilinked_list
LinkedList
p1
(dp2
S'head'
p3
(ilinked_list
Node
p4
(dp5
S'skip'
p6
(ilinked_list
Node
p7
(dp8
g6
NsS'data'
p9
I18
sS'next'
p10
Nsbsg9
I1
sg10
(ilinked_list
Node
p11
(dp12
g6
Nsg9
I10
sg10
g7
sbsbsS'tail'
p13
g7
sS'size'
p14
I3
sb.(ilinked_list
LinkedList
p1
(dp2
S'head'
p3
(ilinked_list
Node
p4
(dp5
S'skip'
p6
NsS'data'
p7
I1
sS'next'
p8
NsbsS'tail'
p9
g4
sS'size'
p10
I1
sb.(ilinked_list
LinkedList
p1
(dp2
S'head'
p3
(ilinked_list
Node
p4
(dp5
S'skip'
p6
NsS'data'
p7
I1
sS'next'
p8
NsbsS'tail'
p9
g4
sS'size'
p10
I1
sb.(ilinked_list
LinkedList
p1
(dp2
S'head'
p3
(ilinked_list
Node
p4
(dp5
S'skip'
p6
NsS'data'
p7
I1
sS'next'
p8
NsbsS'tail'
p9
g4
sS'size'
p10
I1
sb.(ilinked_list
LinkedList
p1
(dp2
S'head'
p3
(ilinked_list
Node
p4
(dp5
S'skip'
p6
NsS'data'
p7
I1
sS'next'
p8
NsbsS'tail'
p9
g4
sS'size'
p10
I1
sb.(ilinked_list
LinkedList
p1
(dp2
S'head'
p3
(ilinked_list
Node
p4
(dp5
S'skip'
p6
NsS'data'
p7
I1
sS'next'
p8
(ilinked_list
Node
p9
(dp10
g6
Nsg7
I12
sg8
NsbsbsS'tail'
p11
g9
sS'size'
p12
I2
sb.(ilinked_list
LinkedList
p1
(dp2
S'head'
p3
(ilinked_list
Node
p4
(dp5
S'skip'
p6
NsS'data'
p7
I1
sS'next'
p8
NsbsS'tail'
p9
g4
sS'size'
p10
I1
sb.(ilinked_list
LinkedList
p1
(dp2
S'head'
p3
(ilinked_list
Node
p4
(dp5
S'skip'
p6
(ilinked_list
Node
p7
(dp8
g6
(ilinked_list
Node
p9
(dp10
g6
NsS'data'
p11
I14
sS'next'
p12
Nsbsg11
I11
sg12
(ilinked_list
Node
p13
(dp14
g6
Nsg11
I12
sg12
(ilinked_list
Node
p15
(dp16
g6
Nsg11
I13
sg12
g9
sbsbsbsg11
I1
sg12
(ilinked_list
Node
p17
(dp18
g6
Nsg11
I9
sg12
(ilinked_list
Node
p19
(dp20
g6
Nsg11
I10
sg12
g7
sbsbsbsS'tail'
p21
g9
sS'size'
p22
I7
sb.(ilinked_list
LinkedList
p1
(dp2
S'head'
p3
(ilinked_list
Node
p4
(dp5
S'skip'
p6
NsS'data'
p7
I1
sS'next'
p8
NsbsS'tail'
p9
g4
sS'size'
p10
I1
sb.(ilinked_list
LinkedList
p1
(dp2
S'head'
p3
(ilinked_list
Node
p4
(dp5
S'skip'
p6
(ilinked_list
Node
p7
(dp8
g6
NsS'data'
p9
I18
sS'next'
p10
Nsbsg9
I1
sg10
(ilinked_list
Node
p11
(dp12
g6
Nsg9
I12
sg10
g7
sbsbsS'tail'
p13
g7
sS'size'
p14
I3
sb.(ilinked_list
LinkedList
p1
(dp2
S'head'
p3
(ilinked_list
Node
p4
(dp5
S'skip'
p6
NsS'data'
p7
I1
sS'next'
p8
NsbsS'tail'
p9
g4
sS'size'
p10
I1
sb.(ilinked_list
LinkedList
p1
(dp2
S'head'
p3
(ilinked_list
Node
p4
(dp5
S'skip'
p6
(ilinked_list
Node
p7
(dp8
g6
NsS'data'
p9
I10
sS'next'
p10
Nsbsg9
I1
sg10
(ilinked_list
Node
p11
(dp12
g6
Nsg9
I6
sg10
g7
sbsbsS'tail'
p13
g7
sS'size'
p14
I3
sb.(ilinked_list
LinkedList
p1
(dp2
S'head'
p3
(ilinked_list
Node
p4
(dp5
S'skip'
p6
NsS'data'
p7
I1
sS'next'
p8
NsbsS'tail'
p9
g4
sS'size'
p10
I1
sb.(ilinked_list
LinkedList
p1
(dp2
S'head'
p3
(ilinked_list
Node
p4
(dp5
S'skip'
p6
NsS'data'
p7
I1
sS'next'
p8
NsbsS'tail'
p9
g4
sS'size'
p10
I1
sb.(ilinked_list
LinkedList
p1
(dp2
S'head'
p3
(ilinked_list
Node
p4
(dp5
S'skip'
p6
NsS'data'
p7
I1
sS'next'
p8
NsbsS'tail'
p9
g4
sS'size'
p10
I1
sb.(ilinked_list
LinkedList
p1
(dp2
S'head'
p3
(ilinked_list
Node
p4
(dp5
S'skip'
p6
NsS'data'
p7
I1
sS'next'
p8
(ilinked_list
Node
p9
(dp10
g6
Nsg7
I18
sg8
NsbsbsS'tail'
p11
g9
sS'size'
p12
I2
sb.(ilinked_list
LinkedList
p1
(dp2
S'head'
p3
(ilinked_list
Node
p4
(dp5
S'skip'
p6
(ilinked_list
Node
p7
(dp8
g6
(ilinked_list
Node
p9
(dp10
g6
NsS'data'
p11
I18
sS'next'
p12
Nsbsg11
I10
sg12
(ilinked_list
Node
p13
(dp14
g6
Nsg11
I13
sg12
g9
sbsbsg11
I1
sg12
(ilinked_list
Node
p15
(dp16
g6
Nsg11
I5
sg12
(ilinked_list
Node
p17
(dp18
g6
Nsg11
I6
sg12
g7
sbsbsbsS'tail'
p19
g9
sS'size'
p20
I6
sb.(ilinked_list
LinkedList
p1
(dp2
S'head'
p3
(ilinked_list
Node
p4
(dp5
S'skip'
p6
NsS'data'
p7
I1
sS'next'
p8
NsbsS'tail'
p9
g4
sS'size'
p10
I1
sb.(ilinked_list
LinkedList
p1
(dp2
S'head'
p3
(ilinked_list
Node
p4
(dp5
S'skip'
p6
NsS'data'
p7
I1
sS'next'
p8
NsbsS'tail'
p9
g4
sS'size'
p10
I1
sb.(ilinked_list
LinkedList
p1
(dp2
S'head'
p3
(ilinked_list
Node
p4
(dp5
S'skip'
p6
NsS'data'
p7
I1
sS'next'
p8
NsbsS'tail'
p9
g4
sS'size'
p10
I1
sb.(ilinked_list
LinkedList
p1
(dp2
S'head'
p3
(ilinked_list
Node
p4
(dp5
S'skip'
p6
NsS'data'
p7
I1
sS'next'
p8
NsbsS'tail'
p9
g4
sS'size'
p10
I1
sb.(ilinked_list
LinkedList
p1
(dp2
S'head'
p3
(ilinked_list
Node
p4
(dp5
S'skip'
p6
(ilinked_list
Node
p7
(dp8
g6
NsS'data'
p9
I18
sS'next'
p10
Nsbsg9
I1
sg10
(ilinked_list
Node
p11
(dp12
g6
Nsg9
I12
sg10
g7
sbsbsS'tail'
p13
g7
sS'size'
p14
I3
sb.(ilinked_list
LinkedList
p1
(dp2
S'head'
p3
(ilinked_list
Node
p4
(dp5
S'skip'
p6
NsS'data'
p7
I1
sS'next'
p8
NsbsS'tail'
p9
g4
sS'size'
p10
I1
sb.(ilinked_list
LinkedList
p1
(dp2
S'head'
p3
(ilinked_list
Node
p4
(dp5
S'skip'
p6
(ilinked_list
Node
p7
(dp8
g6
(ilinked_list
Node
p9
(dp10
g6
NsS'data'
p11
I18
sS'next'
p12
Nsbsg11
I10
sg12
(ilinked_list
Node
p13
(dp14
g6
Nsg11
I12
sg12
g9
sbsbsg11
I1
sg12
(ilinked_list
Node
p15
(dp16
g6
Nsg11
I9
sg12
g7
sbsbsS'tail'
p17
g9
sS'size'
p18
I5
sb.(ilinked_list
LinkedList
p1
(dp2
S'head'
p3
(ilinked_list
Node
p4
(dp5
S'skip'
p6
(ilinked_list
Node
p7
(dp8
g6
(ilinked_list
Node
p9
(dp10
g6
NsS'data'
p11
I18
sS'next'
p12
Nsbsg11
I10
sg12
g9
sbsg11
I1
sg12
(ilinked_list
Node
p13
(dp14
g6
Nsg11
I9
sg12
g7
sbsbsS'tail'
p15
g9
sS'size'
p16
I4
sb.(ilinked_list
LinkedList
p1
(dp2
S'head'
p3
(ilinked_list
Node
p4
(dp5
S'skip'
p6
(ilinked_list
Node
p7
(dp8
g6
(ilinked_list
Node
p9
(dp10
g6
NsS'data'
p11
I12
sS'next'
p12
Nsbsg11
I6
sg12
(ilinked_list
Node
p13
(dp14
g6
Nsg11
I9
sg12
g9
sbsbsg11
I1
sg12
(ilinked_list
Node
p15
(dp16
g6
Nsg11
I5
sg12
g7
sbsbsS'tail'
p17
g9
sS'size'
p18
I5
sb.(ilinked_list
LinkedList
p1
(dp2
S'head'
p3
(ilinked_list
Node
p4
(dp5
S'skip'
p6
(ilinked_list
Node
p7
(dp8
g6
NsS'data'
p9
I10
sS'next'
p10
Nsbsg9
I1
sg10
(ilinked_list
Node
p11
(dp12
g6
Nsg9
I9
sg10
g7
sbsbsS'tail'
p13
g7
sS'size'
p14
I3
sb.(ilinked_list
LinkedList
p1
(dp2
S'head'
p3
(ilinked_list
Node
p4
(dp5
S'skip'
p6
(ilinked_list
Node
p7
(dp8
g6
NsS'data'
p9
I12
sS'next'
p10
Nsbsg9
I1
sg10
(ilinked_list
Node
p11
(dp12
g6
Nsg9
I5
sg10
g7
sbsbsS'tail'
p13
g7
sS'size'
p14
I3
sb.(ilinked_list
LinkedList
p1
(dp2
S'head'
p3
(ilinked_list
Node
p4
(dp5
S'skip'
p6
NsS'data'
p7
I1
sS'next'
p8
NsbsS'tail'
p9
g4
sS'size'
p10
I1
sb.(ilinked_list
LinkedList
p1
(dp2
S'head'
p3
(ilinked_list
Node
p4
(dp5
S'skip'
p6
NsS'data'
p7
I1
sS'next'
p8
NsbsS'tail'
p9
g4
sS'size'
p10
I1
sb.(ilinked_list
LinkedList
p1
(dp2
S'head'
p3
(ilinked_list
Node
p4
(dp5
S'skip'
p6
NsS'data'
p7
I1
sS'next'
p8
(ilinked_list
Node
p9
(dp10
g6
Nsg7
I5
sg8
NsbsbsS'tail'
p11
g9
sS'size'
p12
I2
sb.(ilinked_list
LinkedList
p1
(dp2
S'head'
p3
(ilinked_list
Node
p4
(dp5
S'skip'
p6
NsS'data'
p7
I1
sS'next'
p8
NsbsS'tail'
p9
g4
sS'size'
p10
I1
sb.(ilinked_list
LinkedList
p1
(dp2
S'head'
p3
(ilinked_list
Node
p4
(dp5
S'skip'
p6
NsS'data'
p7
I1
sS'next'
p8
NsbsS'tail'
p9
g4
sS'size'
p10
I1
sb.(ilinked_list
LinkedList
p1
(dp2
S'head'
p3
(ilinked_list
Node
p4
(dp5
S'skip'
p6
NsS'data'
p7
I1
sS'next'
p8
NsbsS'tail'
p9
g4
sS'size'
p10
I1
sb.(ilinked_list
LinkedList
p1
(dp2
S'head'
p3
(ilinked_list
Node
p4
(dp5
S'skip'
p6
NsS'data'
p7
I1
sS'next'
p8
NsbsS'tail'
p9
g4
sS'size'
p10
I1
sb.(ilinked_list
LinkedList
p1
(dp2
S'head'
p3
(ilinked_list
Node
p4
(dp5
S'skip'
p6
NsS'data'
p7
I1
sS'next'
p8
NsbsS'tail'
p9
g4
sS'size'
p10
I1
sb.(ilinked_list
LinkedList
p1
(dp2
S'head'
p3
(ilinked_list
Node
p4
(dp5
S'skip'
p6
(ilinked_list
Node
p7
(dp8
g6
NsS'data'
p9
I18
sS'next'
p10
Nsbsg9
I1
sg10
(ilinked_list
Node
p11
(dp12
g6
Nsg9
I12
sg10
g7
sbsbsS'tail'
p13
g7
sS'size'
p14
I3
sb.(ilinked_list
LinkedList
p1
(dp2
S'head'
p3
(ilinked_list
Node
p4
(dp5
S'skip'
p6
NsS'data'
p7
I1
sS'next'
p8
NsbsS'tail'
p9
g4
sS'size'
p10
I1
sb.(ilinked_list
LinkedList
p1
(dp2
S'head'
p3
(ilinked_list
Node
p4
(dp5
S'skip'
p6
NsS'data'
p7
I1
sS'next'
p8
(ilinked_list
Node
p9
(dp10
g6
Nsg7
I10
sg8
NsbsbsS'tail'
p11
g9
sS'size'
p12
I2
sb.(ilinked_list
LinkedList
p1
(dp2
S'head'
p3
(ilinked_list
Node
p4
(dp5
S'skip'
p6
NsS'data'
p7
I1
sS'next'
p8
NsbsS'tail'
p9
g4
sS'size'
p10
I1
sb.(ilinked_list
LinkedList
p1
(dp2
S'head'
p3
(ilinked_list
Node
p4
(dp5
S'skip'
p6
NsS'data'
p7
I1
sS'next'
p8
(ilinked_list
Node
p9
(dp10
g6
Nsg7
I18
sg8
NsbsbsS'tail'
p11
g9
sS'size'
p12
I2
sb.(ilinked_list
LinkedList
p1
(dp2
S'head'
p3
(ilinked_list
Node
p4
(dp5
S'skip'
p6
NsS'data'
p7
I1
sS'next'
p8
NsbsS'tail'
p9
g4
sS'size'
p10
I1
sb.(ilinked_list
LinkedList
p1
(dp2
S'head'
p3
(ilinked_list
Node
p4
(dp5
S'skip'
p6
NsS'data'
p7
I1
sS'next'
p8
NsbsS'tail'
p9
g4
sS'size'
p10
I1
sb.(ilinked_list
LinkedList
p1
(dp2
S'head'
p3
(ilinked_list
Node
p4
(dp5
S'skip'
p6
NsS'data'
p7
I1
sS'next'
p8
NsbsS'tail'
p9
g4
sS'size'
p10
I1
sb.(ilinked_list
LinkedList
p1
(dp2
S'head'
p3
(ilinked_list
Node
p4
(dp5
S'skip'
p6
NsS'data'
p7
I1
sS'next'
p8
NsbsS'tail'
p9
g4
sS'size'
p10
I1
sb.(ilinked_list
LinkedList
p1
(dp2
S'head'
p3
(ilinked_list
Node
p4
(dp5
S'skip'
p6
NsS'data'
p7
I1
sS'next'
p8
NsbsS'tail'
p9
g4
sS'size'
p10
I1
sb.(ilinked_list
LinkedList
p1
(dp2
S'head'
p3
(ilinked_list
Node
p4
(dp5
S'skip'
p6
NsS'data'
p7
I1
sS'next'
p8
NsbsS'tail'
p9
g4
sS'size'
p10
I1
sb.(ilinked_list
LinkedList
p1
(dp2
S'head'
p3
(ilinked_list
Node
p4
(dp5
S'skip'
p6
NsS'data'
p7
I1
sS'next'
p8
(ilinked_list
Node
p9
(dp10
g6
Nsg7
I6
sg8
NsbsbsS'tail'
p11
g9
sS'size'
p12
I2
sb.(ilinked_list
LinkedList
p1
(dp2
S'head'
p3
(ilinked_list
Node
p4
(dp5
S'skip'
p6
NsS'data'
p7
I1
sS'next'
p8
NsbsS'tail'
p9
g4
sS'size'
p10
I1
sb.(ilinked_list
LinkedList
p1
(dp2
S'head'
p3
(ilinked_list
Node
p4
(dp5
S'skip'
p6
NsS'data'
p7
I1
sS'next'
p8
NsbsS'tail'
p9
g4
sS'size'
p10
I1
sb.(ilinked_list
LinkedList
p1
(dp2
S'head'
p3
(ilinked_list
Node
p4
(dp5
S'skip'
p6
(ilinked_list
Node
p7
(dp8
g6
(ilinked_list
Node
p9
(dp10
g6
NsS'data'
p11
I18
sS'next'
p12
Nsbsg11
I12
sg12
g9
sbsg11
I1
sg12
(ilinked_list
Node
p13
(dp14
g6
Nsg11
I6
sg12
g7
sbsbsS'tail'
p15
g9
sS'size'
p16
I4
sb.(ilinked_list
LinkedList
p1
(dp2
S'head'
p3
(ilinked_list
Node
p4
(dp5
S'skip'
p6
NsS'data'
p7
I1
sS'next'
p8
NsbsS'tail'
p9
g4
sS'size'
p10
I1
sb.(ilinked_list
LinkedList
p1
(dp2
S'head'
p3
(ilinked_list
Node
p4
(dp5
S'skip'
p6
(ilinked_list
Node
p7
(dp8
g6
NsS'data'
p9
I10
sS'next'
p10
Nsbsg9
I1
sg10
(ilinked_list
Node
p11
(dp12
g6
Nsg9
I5
sg10
g7
sbsbsS'tail'
p13
g7
sS'size'
p14
I3
sb.(ilinked_list
LinkedList
p1
(dp2
S'head'
p3
(ilinked_list
Node
p4
(dp5
S'skip'
p6
NsS'data'
p7
I1
sS'next'
p8
(ilinked_list
Node
p9
(dp10
g6
Nsg7
I18
sg8
NsbsbsS'tail'
p11
g9
sS'size'
p12
I2
sb.(ilinked_list
LinkedList
p1
(dp2
S'head'
p3
(ilinked_list
Node
p4
(dp5
S'skip'
p6
NsS'data'
p7
I1
sS'next'
p8
NsbsS'tail'
p9
g4
sS'size'
p10
I1
sb.(ilinked_list
LinkedList
p1
(dp2
S'head'
p3
(ilinked_list
Node
p4
(dp5
S'skip'
p6
NsS'data'
p7
I1
sS'next'
p8
NsbsS'tail'
p9
g4
sS'size'
p10
I1
sb.(ilinked_list
LinkedList
p1
(dp2
S'head'
p3
(ilinked_list
Node
p4
(dp5
S'skip'
p6
NsS'data'
p7
I1
sS'next'
p8
NsbsS'tail'
p9
g4
sS'size'
p10
I1
sb.(ilinked_list
LinkedList
p1
(dp2
S'head'
p3
(ilinked_list
Node
p4
(dp5
S'skip'
p6
NsS'data'
p7
I1
sS'next'
p8
NsbsS'tail'
p9
g4
sS'size'
p10
I1
sb.(ilinked_list
LinkedList
p1
(dp2
S'head'
p3
(ilinked_list
Node
p4
(dp5
S'skip'
p6
NsS'data'
p7
I1
sS'next'
p8
NsbsS'tail'
p9
g4
sS'size'
p10
I1
sb.(ilinked_list
LinkedList
p1
(dp2
S'head'
p3
(ilinked_list
Node
p4
(dp5
S'skip'
p6
NsS'data'
p7
I1
sS'next'
p8
NsbsS'tail'
p9
g4
sS'size'
p10
I1
sb.(ilinked_list
LinkedList
p1
(dp2
S'head'
p3
(ilinked_list
Node
p4
(dp5
S'skip'
p6
NsS'data'
p7
I1
sS'next'
p8
NsbsS'tail'
p9
g4
sS'size'
p10
I1
sb.(ilinked_list
LinkedList
p1
(dp2
S'head'
p3
(ilinked_list
Node
p4
(dp5
S'skip'
p6
NsS'data'
p7
I1
sS'next'
p8
NsbsS'tail'
p9
g4
sS'size'
p10
I1
sb.(ilinked_list
LinkedList
p1
(dp2
S'head'
p3
(ilinked_list
Node
p4
(dp5
S'skip'
p6
(ilinked_list
Node
p7
(dp8
g6
(ilinked_list
Node
p9
(dp10
g6
NsS'data'
p11
I18
sS'next'
p12
Nsbsg11
I10
sg12
(ilinked_list
Node
p13
(dp14
g6
Nsg11
I12
sg12
g9
sbsbsg11
I1
sg12
(ilinked_list
Node
p15
(dp16
g6
Nsg11
I9
sg12
g7
sbsbsS'tail'
p17
g9
sS'size'
p18
I5
sb.(ilinked_list
LinkedList
p1
(dp2
S'head'
p3
(ilinked_list
Node
p4
(dp5
S'skip'
p6
NsS'data'
p7
I1
sS'next'
p8
NsbsS'tail'
p9
g4
sS'size'
p10
I1
sb.(ilinked_list
LinkedList
p1
(dp2
S'head'
p3
(ilinked_list
Node
p4
(dp5
S'skip'
p6
NsS'data'
p7
I1
sS'next'
p8
NsbsS'tail'
p9
g4
sS'size'
p10
I1
sb.(ilinked_list
LinkedList
p1
(dp2
S'head'
p3
(ilinked_list
Node
p4
(dp5
S'skip'
p6
(ilinked_list
Node
p7
(dp8
g6
(ilinked_list
Node
p9
(dp10
g6
NsS'data'
p11
I18
sS'next'
p12
Nsbsg11
I9
sg12
(ilinked_list
Node
p13
(dp14
g6
Nsg11
I12
sg12
g9
sbsbsg11
I1
sg12
(ilinked_list
Node
p15
(dp16
g6
Nsg11
I6
sg12
g7
sbsbsS'tail'
p17
g9
sS'size'
p18
I5
sb.(ilinked_list
LinkedList
p1
(dp2
S'head'
p3
(ilinked_list
Node
p4
(dp5
S'skip'
p6
NsS'data'
p7
I1
sS'next'
p8
NsbsS'tail'
p9
g4
sS'size'
p10
I1
sb.(ilinked_list
LinkedList
p1
(dp2
S'head'
p3
(ilinked_list
Node
p4
(dp5
S'skip'
p6
NsS'data'
p7
I1
sS'next'
p8
NsbsS'tail'
p9
g4
sS'size'
p10
I1
sb.(ilinked_list
LinkedList
p1
(dp2
S'head'
p3
(ilinked_list
Node
p4
(dp5
S'skip'
p6
NsS'data'
p7
I1
sS'next'
p8
NsbsS'tail'
p9
g4
sS'size'
p10
I1
sb.(ilinked_list
LinkedList
p1
(dp2
S'head'
p3
(ilinked_list
Node
p4
(dp5
S'skip'
p6
(ilinked_list
Node
p7
(dp8
g6
(ilinked_list
Node
p9
(dp10
g6
NsS'data'
p11
I18
sS'next'
p12
Nsbsg11
I12
sg12
g9
sbsg11
I1
sg12
(ilinked_list
Node
p13
(dp14
g6
Nsg11
I10
sg12
g7
sbsbsS'tail'
p15
g9
sS'size'
p16
I4
sb.(ilinked_list
LinkedList
p1
(dp2
S'head'
p3
(ilinked_list
Node
p4
(dp5
S'skip'
p6
NsS'data'
p7
I1
sS'next'
p8
NsbsS'tail'
p9
g4
sS'size'
p10
I1
sb.(ilinked_list
LinkedList
p1
(dp2
S'head'
p3
(ilinked_list
Node
p4
(dp5
S'skip'
p6
NsS'data'
p7
I1
sS'next'
p8
NsbsS'tail'
p9
g4
sS'size'
p10
I1
sb.(ilinked_list
LinkedList
p1
(dp2
S'head'
p3
(ilinked_list
Node
p4
(dp5
S'skip'
p6
NsS'data'
p7
I1
sS'next'
p8
(ilinked_list
Node
p9
(dp10
g6
Nsg7
I12
sg8
NsbsbsS'tail'
p11
g9
sS'size'
p12
I2
sb.(ilinked_list
LinkedList
p1
(dp2
S'head'
p3
(ilinked_list
Node
p4
(dp5
S'skip'
p6
NsS'data'
p7
I1
sS'next'
p8
(ilinked_list
Node
p9
(dp10
g6
Nsg7
I18
sg8
NsbsbsS'tail'
p11
g9
sS'size'
p12
I2
sb.(ilinked_list
LinkedList
p1
(dp2
S'head'
p3
(ilinked_list
Node
p4
(dp5
S'skip'
p6
NsS'data'
p7
I1
sS'next'
p8
NsbsS'tail'
p9
g4
sS'size'
p10
I1
sb.(ilinked_list
LinkedList
p1
(dp2
S'head'
p3
(ilinked_list
Node
p4
(dp5
S'skip'
p6
(ilinked_list
Node
p7
(dp8
g6
(ilinked_list
Node
p9
(dp10
g6
NsS'data'
p11
I18
sS'next'
p12
Nsbsg11
I9
sg12
(ilinked_list
Node
p13
(dp14
g6
Nsg11
I10
sg12
(ilinked_list
Node
p15
(dp16
g6
Nsg11
I12
sg12
g9
sbsbsbsg11
I1
sg12
(ilinked_list
Node
p17
(dp18
g6
Nsg11
I5
sg12
(ilinked_list
Node
p19
(dp20
g6
Nsg11
I6
sg12
g7
sbsbsbsS'tail'
p21
g9
sS'size'
p22
I7
sb.(ilinked_list
LinkedList
p1
(dp2
S'head'
p3
(ilinked_list
Node
p4
(dp5
S'skip'
p6
NsS'data'
p7
I1
sS'next'
p8
NsbsS'tail'
p9
g4
sS'size'
p10
I1
sb.(ilinked_list
LinkedList
p1
(dp2
S'head'
p3
(ilinked_list
Node
p4
(dp5
S'skip'
p6
NsS'data'
p7
I1
sS'next'
p8
NsbsS'tail'
p9
g4
sS'size'
p10
I1
sb.(ilinked_list
LinkedList
p1
(dp2
S'head'
p3
(ilinked_list
Node
p4
(dp5
S'skip'
p6
NsS'data'
p7
I5
sS'next'
p8
NsbsS'tail'
p9
g4
sS'size'
p10
I1
sb.(ilinked_list
LinkedList
p1
(dp2
S'head'
p3
(ilinked_list
Node
p4
(dp5
S'skip'
p6
NsS'data'
p7
I5
sS'next'
p8
NsbsS'tail'
p9
g4
sS'size'
p10
I1
sb.(ilinked_list
LinkedList
p1
(dp2
S'head'
p3
(ilinked_list
Node
p4
(dp5
S'skip'
p6
NsS'data'
p7
I5
sS'next'
p8
NsbsS'tail'
p9
g4
sS'size'
p10
I1
sb.(ilinked_list
LinkedList
p1
(dp2
S'head'
p3
(ilinked_list
Node
p4
(dp5
S'skip'
p6
NsS'data'
p7
I5
sS'next'
p8
(ilinked_list
Node
p9
(dp10
g6
Nsg7
I6
sg8
NsbsbsS'tail'
p11
g9
sS'size'
p12
I2
sb.(ilinked_list
LinkedList
p1
(dp2
S'head'
p3
(ilinked_list
Node
p4
(dp5
S'skip'
p6
NsS'data'
p7
I5
sS'next'
p8
NsbsS'tail'
p9
g4
sS'size'
p10
I1
sb.(ilinked_list
LinkedList
p1
(dp2
S'head'
p3
(ilinked_list
Node
p4
(dp5
S'skip'
p6
NsS'data'
p7
I5
sS'next'
p8
(ilinked_list
Node
p9
(dp10
g6
Nsg7
I9
sg8
NsbsbsS'tail'
p11
g9
sS'size'
p12
I2
sb.(ilinked_list
LinkedList
p1
(dp2
S'head'
p3
(ilinked_list
Node
p4
(dp5
S'skip'
p6
NsS'data'
p7
I5
sS'next'
p8
NsbsS'tail'
p9
g4
sS'size'
p10
I1
sb.(ilinked_list
LinkedList
p1
(dp2
S'head'
p3
(ilinked_list
Node
p4
(dp5
S'skip'
p6
NsS'data'
p7
I5
sS'next'
p8
NsbsS'tail'
p9
g4
sS'size'
p10
I1
sb.(ilinked_list
LinkedList
p1
(dp2
S'head'
p3
(ilinked_list
Node
p4
(dp5
S'skip'
p6
NsS'data'
p7
I5
sS'next'
p8
(ilinked_list
Node
p9
(dp10
g6
Nsg7
I9
sg8
NsbsbsS'tail'
p11
g9
sS'size'
p12
I2
sb.(ilinked_list
LinkedList
p1
(dp2
S'head'
p3
(ilinked_list
Node
p4
(dp5
S'skip'
p6
NsS'data'
p7
I5
sS'next'
p8
NsbsS'tail'
p9
g4
sS'size'
p10
I1
sb.(ilinked_list
LinkedList
p1
(dp2
S'head'
p3
(ilinked_list
Node
p4
(dp5
S'skip'
p6
NsS'data'
p7
I5
sS'next'
p8
NsbsS'tail'
p9
g4
sS'size'
p10
I1
sb.(ilinked_list
LinkedList
p1
(dp2
S'head'
p3
(ilinked_list
Node
p4
(dp5
S'skip'
p6
NsS'data'
p7
I5
sS'next'
p8
NsbsS'tail'
p9
g4
sS'size'
p10
I1
sb.(ilinked_list
LinkedList
p1
(dp2
S'head'
p3
(ilinked_list
Node
p4
(dp5
S'skip'
p6
NsS'data'
p7
I5
sS'next'
p8
NsbsS'tail'
p9
g4
sS'size'
p10
I1
sb.(ilinked_list
LinkedList
p1
(dp2
S'head'
p3
(ilinked_list
Node
p4
(dp5
S'skip'
p6
(ilinked_list
Node
p7
(dp8
g6
NsS'data'
p9
I18
sS'next'
p10
Nsbsg9
I5
sg10
(ilinked_list
Node
p11
(dp12
g6
Nsg9
I12
sg10
g7
sbsbsS'tail'
p13
g7
sS'size'
p14
I3
sb.(ilinked_list
LinkedList
p1
(dp2
S'head'
p3
(ilinked_list
Node
p4
(dp5
S'skip'
p6
NsS'data'
p7
I5
sS'next'
p8
NsbsS'tail'
p9
g4
sS'size'
p10
I1
sb.(ilinked_list
LinkedList
p1
(dp2
S'head'
p3
(ilinked_list
Node
p4
(dp5
S'skip'
p6
NsS'data'
p7
I5
sS'next'
p8
NsbsS'tail'
p9
g4
sS'size'
p10
I1
sb.(ilinked_list
LinkedList
p1
(dp2
S'head'
p3
(ilinked_list
Node
p4
(dp5
S'skip'
p6
NsS'data'
p7
I5
sS'next'
p8
NsbsS'tail'
p9
g4
sS'size'
p10
I1
sb.(ilinked_list
LinkedList
p1
(dp2
S'head'
p3
(ilinked_list
Node
p4
(dp5
S'skip'
p6
NsS'data'
p7
I5
sS'next'
p8
NsbsS'tail'
p9
g4
sS'size'
p10
I1
sb.(ilinked_list
LinkedList
p1
(dp2
S'head'
p3
(ilinked_list
Node
p4
(dp5
S'skip'
p6
NsS'data'
p7
I5
sS'next'
p8
NsbsS'tail'
p9
g4
sS'size'
p10
I1
sb.(ilinked_list
LinkedList
p1
(dp2
S'head'
p3
(ilinked_list
Node
p4
(dp5
S'skip'
p6
NsS'data'
p7
I5
sS'next'
p8
NsbsS'tail'
p9
g4
sS'size'
p10
I1
sb.(ilinked_list
LinkedList
p1
(dp2
S'head'
p3
(ilinked_list
Node
p4
(dp5
S'skip'
p6
NsS'data'
p7
I5
sS'next'
p8
NsbsS'tail'
p9
g4
sS'size'
p10
I1
sb.(ilinked_list
LinkedList
p1
(dp2
S'head'
p3
(ilinked_list
Node
p4
(dp5
S'skip'
p6
NsS'data'
p7
I5
sS'next'
p8
NsbsS'tail'
p9
g4
sS'size'
p10
I1
sb.(ilinked_list
LinkedList
p1
(dp2
S'head'
p3
(ilinked_list
Node
p4
(dp5
S'skip'
p6
NsS'data'
p7
I5
sS'next'
p8
NsbsS'tail'
p9
g4
sS'size'
p10
I1
sb.(ilinked_list
LinkedList
p1
(dp2
S'head'
p3
(ilinked_list
Node
p4
(dp5
S'skip'
p6
NsS'data'
p7
I5
sS'next'
p8
NsbsS'tail'
p9
g4
sS'size'
p10
I1
sb.(ilinked_list
LinkedList
p1
(dp2
S'head'
p3
(ilinked_list
Node
p4
(dp5
S'skip'
p6
NsS'data'
p7
I5
sS'next'
p8
NsbsS'tail'
p9
g4
sS'size'
p10
I1
sb.(ilinked_list
LinkedList
p1
(dp2
S'head'
p3
(ilinked_list
Node
p4
(dp5
S'skip'
p6
NsS'data'
p7
I5
sS'next'
p8
NsbsS'tail'
p9
g4
sS'size'
p10
I1
sb.(ilinked_list
LinkedList
p1
(dp2
S'head'
p3
(ilinked_list
Node
p4
(dp5
S'skip'
p6
NsS'data'
p7
I5
sS'next'
p8
NsbsS'tail'
p9
g4
sS'size'
p10
I1
sb.(ilinked_list
LinkedList
p1
(dp2
S'head'
p3
(ilinked_list
Node
p4
(dp5
S'skip'
p6
NsS'data'
p7
I5
sS'next'
p8
(ilinked_list
Node
p9
(dp10
g6
Nsg7
I6
sg8
NsbsbsS'tail'
p11
g9
sS'size'
p12
I2
sb.(ilinked_list
LinkedList
p1
(dp2
S'head'
p3
(ilinked_list
Node
p4
(dp5
S'skip'
p6
NsS'data'
p7
I5
sS'next'
p8
NsbsS'tail'
p9
g4
sS'size'
p10
I1
sb.(ilinked_list
LinkedList
p1
(dp2
S'head'
p3
(ilinked_list
Node
p4
(dp5
S'skip'
p6
NsS'data'
p7
I5
sS'next'
p8
NsbsS'tail'
p9
g4
sS'size'
p10
I1
sb.(ilinked_list
LinkedList
p1
(dp2
S'head'
p3
(ilinked_list
Node
p4
(dp5
S'skip'
p6
NsS'data'
p7
I5
sS'next'
p8
NsbsS'tail'
p9
g4
sS'size'
p10
I1
sb.(ilinked_list
LinkedList
p1
(dp2
S'head'
p3
(ilinked_list
Node
p4
(dp5
S'skip'
p6
NsS'data'
p7
I5
sS'next'
p8
NsbsS'tail'
p9
g4
sS'size'
p10
I1
sb.(ilinked_list
LinkedList
p1
(dp2
S'head'
p3
(ilinked_list
Node
p4
(dp5
S'skip'
p6
NsS'data'
p7
I5
sS'next'
p8
NsbsS'tail'
p9
g4
sS'size'
p10
I1
sb.(ilinked_list
LinkedList
p1
(dp2
S'head'
p3
(ilinked_list
Node
p4
(dp5
S'skip'
p6
NsS'data'
p7
I5
sS'next'
p8
NsbsS'tail'
p9
g4
sS'size'
p10
I1
sb.(ilinked_list
LinkedList
p1
(dp2
S'head'
p3
(ilinked_list
Node
p4
(dp5
S'skip'
p6
NsS'data'
p7
I5
sS'next'
p8
NsbsS'tail'
p9
g4
sS'size'
p10
I1
sb.(ilinked_list
LinkedList
p1
(dp2
S'head'
p3
(ilinked_list
Node
p4
(dp5
S'skip'
p6
NsS'data'
p7
I5
sS'next'
p8
NsbsS'tail'
p9
g4
sS'size'
p10
I1
sb.(ilinked_list
LinkedList
p1
(dp2
S'head'
p3
(ilinked_list
Node
p4
(dp5
S'skip'
p6
NsS'data'
p7
I5
sS'next'
p8
NsbsS'tail'
p9
g4
sS'size'
p10
I1
sb.(ilinked_list
LinkedList
p1
(dp2
S'head'
p3
(ilinked_list
Node
p4
(dp5
S'skip'
p6
NsS'data'
p7
I5
sS'next'
p8
NsbsS'tail'
p9
g4
sS'size'
p10
I1
sb.(ilinked_list
LinkedList
p1
(dp2
S'head'
p3
(ilinked_list
Node
p4
(dp5
S'skip'
p6
NsS'data'
p7
I5
sS'next'
p8
(ilinked_list
Node
p9
(dp10
g6
Nsg7
I6
sg8
NsbsbsS'tail'
p11
g9
sS'size'
p12
I2
sb.(ilinked_list
LinkedList
p1
(dp2
S'head'
p3
(ilinked_list
Node
p4
(dp5
S'skip'
p6
NsS'data'
p7
I5
sS'next'
p8
NsbsS'tail'
p9
g4
sS'size'
p10
I1
sb.(ilinked_list
LinkedList
p1
(dp2
S'head'
p3
(ilinked_list
Node
p4
(dp5
S'skip'
p6
NsS'data'
p7
I5
sS'next'
p8
(ilinked_list
Node
p9
(dp10
g6
Nsg7
I11
sg8
NsbsbsS'tail'
p11
g9
sS'size'
p12
I2
sb.(ilinked_list
LinkedList
p1
(dp2
S'head'
p3
(ilinked_list
Node
p4
(dp5
S'skip'
p6
(ilinked_list
Node
p7
(dp8
g6
(ilinked_list
Node
p9
(dp10
g6
NsS'data'
p11
I18
sS'next'
p12
Nsbsg11
I12
sg12
(ilinked_list
Node
p13
(dp14
g6
Nsg11
I13
sg12
g9
sbsbsg11
I5
sg12
(ilinked_list
Node
p15
(dp16
g6
Nsg11
I6
sg12
g7
sbsbsS'tail'
p17
g9
sS'size'
p18
I5
sb.(ilinked_list
LinkedList
p1
(dp2
S'head'
p3
(ilinked_list
Node
p4
(dp5
S'skip'
p6
NsS'data'
p7
I5
sS'next'
p8
NsbsS'tail'
p9
g4
sS'size'
p10
I1
sb.(ilinked_list
LinkedList
p1
(dp2
S'head'
p3
(ilinked_list
Node
p4
(dp5
S'skip'
p6
NsS'data'
p7
I5
sS'next'
p8
NsbsS'tail'
p9
g4
sS'size'
p10
I1
sb.(ilinked_list
LinkedList
p1
(dp2
S'head'
p3
(ilinked_list
Node
p4
(dp5
S'skip'
p6
NsS'data'
p7
I5
sS'next'
p8
NsbsS'tail'
p9
g4
sS'size'
p10
I1
sb.(ilinked_list
LinkedList
p1
(dp2
S'head'
p3
(ilinked_list
Node
p4
(dp5
S'skip'
p6
NsS'data'
p7
I5
sS'next'
p8
NsbsS'tail'
p9
g4
sS'size'
p10
I1
sb.(ilinked_list
LinkedList
p1
(dp2
S'head'
p3
(ilinked_list
Node
p4
(dp5
S'skip'
p6
NsS'data'
p7
I5
sS'next'
p8
NsbsS'tail'
p9
g4
sS'size'
p10
I1
sb.(ilinked_list
LinkedList
p1
(dp2
S'head'
p3
(ilinked_list
Node
p4
(dp5
S'skip'
p6
NsS'data'
p7
I5
sS'next'
p8
NsbsS'tail'
p9
g4
sS'size'
p10
I1
sb.(ilinked_list
LinkedList
p1
(dp2
S'head'
p3
(ilinked_list
Node
p4
(dp5
S'skip'
p6
NsS'data'
p7
I5
sS'next'
p8
NsbsS'tail'
p9
g4
sS'size'
p10
I1
sb.(ilinked_list
LinkedList
p1
(dp2
S'head'
p3
(ilinked_list
Node
p4
(dp5
S'skip'
p6
NsS'data'
p7
I5
sS'next'
p8
NsbsS'tail'
p9
g4
sS'size'
p10
I1
sb.(ilinked_list
LinkedList
p1
(dp2
S'head'
p3
(ilinked_list
Node
p4
(dp5
S'skip'
p6
NsS'data'
p7
I5
sS'next'
p8
NsbsS'tail'
p9
g4
sS'size'
p10
I1
sb.(ilinked_list
LinkedList
p1
(dp2
S'head'
p3
(ilinked_list
Node
p4
(dp5
S'skip'
p6
NsS'data'
p7
I5
sS'next'
p8
NsbsS'tail'
p9
g4
sS'size'
p10
I1
sb.(ilinked_list
LinkedList
p1
(dp2
S'head'
p3
(ilinked_list
Node
p4
(dp5
S'skip'
p6
NsS'data'
p7
I5
sS'next'
p8
NsbsS'tail'
p9
g4
sS'size'
p10
I1
sb.(ilinked_list
LinkedList
p1
(dp2
S'head'
p3
(ilinked_list
Node
p4
(dp5
S'skip'
p6
NsS'data'
p7
I5
sS'next'
p8
NsbsS'tail'
p9
g4
sS'size'
p10
I1
sb.(ilinked_list
LinkedList
p1
(dp2
S'head'
p3
(ilinked_list
Node
p4
(dp5
S'skip'
p6
NsS'data'
p7
I5
sS'next'
p8
NsbsS'tail'
p9
g4
sS'size'
p10
I1
sb.(ilinked_list
LinkedList
p1
(dp2
S'head'
p3
(ilinked_list
Node
p4
(dp5
S'skip'
p6
NsS'data'
p7
I5
sS'next'
p8
NsbsS'tail'
p9
g4
sS'size'
p10
I1
sb.(ilinked_list
LinkedList
p1
(dp2
S'head'
p3
(ilinked_list
Node
p4
(dp5
S'skip'
p6
NsS'data'
p7
I5
sS'next'
p8
(ilinked_list
Node
p9
(dp10
g6
Nsg7
I6
sg8
NsbsbsS'tail'
p11
g9
sS'size'
p12
I2
sb.(ilinked_list
LinkedList
p1
(dp2
S'head'
p3
(ilinked_list
Node
p4
(dp5
S'skip'
p6
NsS'data'
p7
I5
sS'next'
p8
NsbsS'tail'
p9
g4
sS'size'
p10
I1
sb.(ilinked_list
LinkedList
p1
(dp2
S'head'
p3
(ilinked_list
Node
p4
(dp5
S'skip'
p6
NsS'data'
p7
I5
sS'next'
p8
(ilinked_list
Node
p9
(dp10
g6
Nsg7
I13
sg8
NsbsbsS'tail'
p11
g9
sS'size'
p12
I2
sb.(ilinked_list
LinkedList
p1
(dp2
S'head'
p3
(ilinked_list
Node
p4
(dp5
S'skip'
p6
NsS'data'
p7
I5
sS'next'
p8
NsbsS'tail'
p9
g4
sS'size'
p10
I1
sb.(ilinked_list
LinkedList
p1
(dp2
S'head'
p3
(ilinked_list
Node
p4
(dp5
S'skip'
p6
NsS'data'
p7
I5
sS'next'
p8
NsbsS'tail'
p9
g4
sS'size'
p10
I1
sb.(ilinked_list
LinkedList
p1
(dp2
S'head'
p3
(ilinked_list
Node
p4
(dp5
S'skip'
p6
NsS'data'
p7
I5
sS'next'
p8
NsbsS'tail'
p9
g4
sS'size'
p10
I1
sb.(ilinked_list
LinkedList
p1
(dp2
S'head'
p3
(ilinked_list
Node
p4
(dp5
S'skip'
p6
NsS'data'
p7
I5
sS'next'
p8
NsbsS'tail'
p9
g4
sS'size'
p10
I1
sb.(ilinked_list
LinkedList
p1
(dp2
S'head'
p3
(ilinked_list
Node
p4
(dp5
S'skip'
p6
NsS'data'
p7
I5
sS'next'
p8
NsbsS'tail'
p9
g4
sS'size'
p10
I1
sb.(ilinked_list
LinkedList
p1
(dp2
S'head'
p3
(ilinked_list
Node
p4
(dp5
S'skip'
p6
NsS'data'
p7
I5
sS'next'
p8
NsbsS'tail'
p9
g4
sS'size'
p10
I1
sb.(ilinked_list
LinkedList
p1
(dp2
S'head'
p3
(ilinked_list
Node
p4
(dp5
S'skip'
p6
NsS'data'
p7
I5
sS'next'
p8
NsbsS'tail'
p9
g4
sS'size'
p10
I1
sb.(ilinked_list
LinkedList
p1
(dp2
S'head'
p3
(ilinked_list
Node
p4
(dp5
S'skip'
p6
NsS'data'
p7
I5
sS'next'
p8
NsbsS'tail'
p9
g4
sS'size'
p10
I1
sb.(ilinked_list
LinkedList
p1
(dp2
S'head'
p3
(ilinked_list
Node
p4
(dp5
S'skip'
p6
NsS'data'
p7
I5
sS'next'
p8
NsbsS'tail'
p9
g4
sS'size'
p10
I1
sb.(ilinked_list
LinkedList
p1
(dp2
S'head'
p3
(ilinked_list
Node
p4
(dp5
S'skip'
p6
NsS'data'
p7
I5
sS'next'
p8
NsbsS'tail'
p9
g4
sS'size'
p10
I1
sb.(ilinked_list
LinkedList
p1
(dp2
S'head'
p3
(ilinked_list
Node
p4
(dp5
S'skip'
p6
NsS'data'
p7
I5
sS'next'
p8
NsbsS'tail'
p9
g4
sS'size'
p10
I1
sb.(ilinked_list
LinkedList
p1
(dp2
S'head'
p3
(ilinked_list
Node
p4
(dp5
S'skip'
p6
NsS'data'
p7
I5
sS'next'
p8
NsbsS'tail'
p9
g4
sS'size'
p10
I1
sb.(ilinked_list
LinkedList
p1
(dp2
S'head'
p3
(ilinked_list
Node
p4
(dp5
S'skip'
p6
NsS'data'
p7
I5
sS'next'
p8
NsbsS'tail'
p9
g4
sS'size'
p10
I1
sb.(ilinked_list
LinkedList
p1
(dp2
S'head'
p3
(ilinked_list
Node
p4
(dp5
S'skip'
p6
NsS'data'
p7
I5
sS'next'
p8
NsbsS'tail'
p9
g4
sS'size'
p10
I1
sb.(ilinked_list
LinkedList
p1
(dp2
S'head'
p3
(ilinked_list
Node
p4
(dp5
S'skip'
p6
NsS'data'
p7
I6
sS'next'
p8
NsbsS'tail'
p9
g4
sS'size'
p10
I1
sb.(ilinked_list
LinkedList
p1
(dp2
S'head'
p3
(ilinked_list
Node
p4
(dp5
S'skip'
p6
NsS'data'
p7
I6
sS'next'
p8
NsbsS'tail'
p9
g4
sS'size'
p10
I1
sb.(ilinked_list
LinkedList
p1
(dp2
S'head'
p3
(ilinked_list
Node
p4
(dp5
S'skip'
p6
NsS'data'
p7
I6
sS'next'
p8
NsbsS'tail'
p9
g4
sS'size'
p10
I1
sb.(ilinked_list
LinkedList
p1
(dp2
S'head'
p3
(ilinked_list
Node
p4
(dp5
S'skip'
p6
NsS'data'
p7
I6
sS'next'
p8
NsbsS'tail'
p9
g4
sS'size'
p10
I1
sb.(ilinked_list
LinkedList
p1
(dp2
S'head'
p3
(ilinked_list
Node
p4
(dp5
S'skip'
p6
NsS'data'
p7
I6
sS'next'
p8
NsbsS'tail'
p9
g4
sS'size'
p10
I1
sb.(ilinked_list
LinkedList
p1
(dp2
S'head'
p3
(ilinked_list
Node
p4
(dp5
S'skip'
p6
NsS'data'
p7
I6
sS'next'
p8
NsbsS'tail'
p9
g4
sS'size'
p10
I1
sb.(ilinked_list
LinkedList
p1
(dp2
S'head'
p3
(ilinked_list
Node
p4
(dp5
S'skip'
p6
NsS'data'
p7
I6
sS'next'
p8
NsbsS'tail'
p9
g4
sS'size'
p10
I1
sb.(ilinked_list
LinkedList
p1
(dp2
S'head'
p3
(ilinked_list
Node
p4
(dp5
S'skip'
p6
NsS'data'
p7
I6
sS'next'
p8
NsbsS'tail'
p9
g4
sS'size'
p10
I1
sb.(ilinked_list
LinkedList
p1
(dp2
S'head'
p3
(ilinked_list
Node
p4
(dp5
S'skip'
p6
NsS'data'
p7
I6
sS'next'
p8
NsbsS'tail'
p9
g4
sS'size'
p10
I1
sb.(ilinked_list
LinkedList
p1
(dp2
S'head'
p3
(ilinked_list
Node
p4
(dp5
S'skip'
p6
NsS'data'
p7
I6
sS'next'
p8
NsbsS'tail'
p9
g4
sS'size'
p10
I1
sb.(ilinked_list
LinkedList
p1
(dp2
S'head'
p3
(ilinked_list
Node
p4
(dp5
S'skip'
p6
NsS'data'
p7
I6
sS'next'
p8
NsbsS'tail'
p9
g4
sS'size'
p10
I1
sb.(ilinked_list
LinkedList
p1
(dp2
S'head'
p3
(ilinked_list
Node
p4
(dp5
S'skip'
p6
NsS'data'
p7
I6
sS'next'
p8
NsbsS'tail'
p9
g4
sS'size'
p10
I1
sb.(ilinked_list
LinkedList
p1
(dp2
S'head'
p3
(ilinked_list
Node
p4
(dp5
S'skip'
p6
NsS'data'
p7
I6
sS'next'
p8
(ilinked_list
Node
p9
(dp10
g6
Nsg7
I9
sg8
NsbsbsS'tail'
p11
g9
sS'size'
p12
I2
sb.(ilinked_list
LinkedList
p1
(dp2
S'head'
p3
(ilinked_list
Node
p4
(dp5
S'skip'
p6
NsS'data'
p7
I6
sS'next'
p8
NsbsS'tail'
p9
g4
sS'size'
p10
I1
sb.(ilinked_list
LinkedList
p1
(dp2
S'head'
p3
(ilinked_list
Node
p4
(dp5
S'skip'
p6
NsS'data'
p7
I6
sS'next'
p8
NsbsS'tail'
p9
g4
sS'size'
p10
I1
sb.(ilinked_list
LinkedList
p1
(dp2
S'head'
p3
(ilinked_list
Node
p4
(dp5
S'skip'
p6
NsS'data'
p7
I6
sS'next'
p8
NsbsS'tail'
p9
g4
sS'size'
p10
I1
sb.(ilinked_list
LinkedList
p1
(dp2
S'head'
p3
(ilinked_list
Node
p4
(dp5
S'skip'
p6
NsS'data'
p7
I6
sS'next'
p8
NsbsS'tail'
p9
g4
sS'size'
p10
I1
sb.(ilinked_list
LinkedList
p1
(dp2
S'head'
p3
(ilinked_list
Node
p4
(dp5
S'skip'
p6
NsS'data'
p7
I6
sS'next'
p8
NsbsS'tail'
p9
g4
sS'size'
p10
I1
sb.(ilinked_list
LinkedList
p1
(dp2
S'head'
p3
(ilinked_list
Node
p4
(dp5
S'skip'
p6
NsS'data'
p7
I6
sS'next'
p8
NsbsS'tail'
p9
g4
sS'size'
p10
I1
sb.(ilinked_list
LinkedList
p1
(dp2
S'head'
p3
(ilinked_list
Node
p4
(dp5
S'skip'
p6
NsS'data'
p7
I6
sS'next'
p8
NsbsS'tail'
p9
g4
sS'size'
p10
I1
sb.(ilinked_list
LinkedList
p1
(dp2
S'head'
p3
(ilinked_list
Node
p4
(dp5
S'skip'
p6
NsS'data'
p7
I6
sS'next'
p8
NsbsS'tail'
p9
g4
sS'size'
p10
I1
sb.(ilinked_list
LinkedList
p1
(dp2
S'head'
p3
(ilinked_list
Node
p4
(dp5
S'skip'
p6
NsS'data'
p7
I6
sS'next'
p8
NsbsS'tail'
p9
g4
sS'size'
p10
I1
sb.(ilinked_list
LinkedList
p1
(dp2
S'head'
p3
(ilinked_list
Node
p4
(dp5
S'skip'
p6
NsS'data'
p7
I6
sS'next'
p8
NsbsS'tail'
p9
g4
sS'size'
p10
I1
sb.(ilinked_list
LinkedList
p1
(dp2
S'head'
p3
(ilinked_list
Node
p4
(dp5
S'skip'
p6
NsS'data'
p7
I6
sS'next'
p8
NsbsS'tail'
p9
g4
sS'size'
p10
I1
sb.(ilinked_list
LinkedList
p1
(dp2
S'head'
p3
(ilinked_list
Node
p4
(dp5
S'skip'
p6
NsS'data'
p7
I6
sS'next'
p8
NsbsS'tail'
p9
g4
sS'size'
p10
I1
sb.(ilinked_list
LinkedList
p1
(dp2
S'head'
p3
(ilinked_list
Node
p4
(dp5
S'skip'
p6
NsS'data'
p7
I6
sS'next'
p8
NsbsS'tail'
p9
g4
sS'size'
p10
I1
sb.(ilinked_list
LinkedList
p1
(dp2
S'head'
p3
(ilinked_list
Node
p4
(dp5
S'skip'
p6
NsS'data'
p7
I6
sS'next'
p8
NsbsS'tail'
p9
g4
sS'size'
p10
I1
sb.(ilinked_list
LinkedList
p1
(dp2
S'head'
p3
(ilinked_list
Node
p4
(dp5
S'skip'
p6
NsS'data'
p7
I6
sS'next'
p8
NsbsS'tail'
p9
g4
sS'size'
p10
I1
sb.(ilinked_list
LinkedList
p1
(dp2
S'head'
p3
(ilinked_list
Node
p4
(dp5
S'skip'
p6
NsS'data'
p7
I6
sS'next'
p8
NsbsS'tail'
p9
g4
sS'size'
p10
I1
sb.(ilinked_list
LinkedList
p1
(dp2
S'head'
p3
(ilinked_list
Node
p4
(dp5
S'skip'
p6
NsS'data'
p7
I6
sS'next'
p8
NsbsS'tail'
p9
g4
sS'size'
p10
I1
sb.(ilinked_list
LinkedList
p1
(dp2
S'head'
p3
(ilinked_list
Node
p4
(dp5
S'skip'
p6
NsS'data'
p7
I6
sS'next'
p8
NsbsS'tail'
p9
g4
sS'size'
p10
I1
sb.(ilinked_list
LinkedList
p1
(dp2
S'head'
p3
(ilinked_list
Node
p4
(dp5
S'skip'
p6
NsS'data'
p7
I6
sS'next'
p8
NsbsS'tail'
p9
g4
sS'size'
p10
I1
sb.(ilinked_list
LinkedList
p1
(dp2
S'head'
p3
(ilinked_list
Node
p4
(dp5
S'skip'
p6
NsS'data'
p7
I6
sS'next'
p8
NsbsS'tail'
p9
g4
sS'size'
p10
I1
sb.(ilinked_list
LinkedList
p1
(dp2
S'head'
p3
(ilinked_list
Node
p4
(dp5
S'skip'
p6
NsS'data'
p7
I6
sS'next'
p8
NsbsS'tail'
p9
g4
sS'size'
p10
I1
sb.(ilinked_list
LinkedList
p1
(dp2
S'head'
p3
(ilinked_list
Node
p4
(dp5
S'skip'
p6
NsS'data'
p7
I6
sS'next'
p8
NsbsS'tail'
p9
g4
sS'size'
p10
I1
sb.(ilinked_list
LinkedList
p1
(dp2
S'head'
p3
(ilinked_list
Node
p4
(dp5
S'skip'
p6
NsS'data'
p7
I6
sS'next'
p8
NsbsS'tail'
p9
g4
sS'size'
p10
I1
sb.(ilinked_list
LinkedList
p1
(dp2
S'head'
p3
(ilinked_list
Node
p4
(dp5
S'skip'
p6
NsS'data'
p7
I6
sS'next'
p8
NsbsS'tail'
p9
g4
sS'size'
p10
I1
sb.(ilinked_list
LinkedList
p1
(dp2
S'head'
p3
(ilinked_list
Node
p4
(dp5
S'skip'
p6
NsS'data'
p7
I6
sS'next'
p8
NsbsS'tail'
p9
g4
sS'size'
p10
I1
sb.(ilinked_list
LinkedList
p1
(dp2
S'head'
p3
(ilinked_list
Node
p4
(dp5
S'skip'
p6
NsS'data'
p7
I6
sS'next'
p8
NsbsS'tail'
p9
g4
sS'size'
p10
I1
sb.(ilinked_list
LinkedList
p1
(dp2
S'head'
p3
(ilinked_list
Node
p4
(dp5
S'skip'
p6
NsS'data'
p7
I6
sS'next'
p8
NsbsS'tail'
p9
g4
sS'size'
p10
I1
sb.(ilinked_list
LinkedList
p1
(dp2
S'head'
p3
(ilinked_list
Node
p4
(dp5
S'skip'
p6
NsS'data'
p7
I6
sS'next'
p8
NsbsS'tail'
p9
g4
sS'size'
p10
I1
sb.(ilinked_list
LinkedList
p1
(dp2
S'head'
p3
(ilinked_list
Node
p4
(dp5
S'skip'
p6
NsS'data'
p7
I6
sS'next'
p8
NsbsS'tail'
p9
g4
sS'size'
p10
I1
sb.(ilinked_list
LinkedList
p1
(dp2
S'head'
p3
(ilinked_list
Node
p4
(dp5
S'skip'
p6
NsS'data'
p7
I6
sS'next'
p8
NsbsS'tail'
p9
g4
sS'size'
p10
I1
sb.(ilinked_list
LinkedList
p1
(dp2
S'head'
p3
(ilinked_list
Node
p4
(dp5
S'skip'
p6
NsS'data'
p7
I6
sS'next'
p8
NsbsS'tail'
p9
g4
sS'size'
p10
I1
sb.(ilinked_list
LinkedList
p1
(dp2
S'head'
p3
(ilinked_list
Node
p4
(dp5
S'skip'
p6
NsS'data'
p7
I6
sS'next'
p8
NsbsS'tail'
p9
g4
sS'size'
p10
I1
sb.(ilinked_list
LinkedList
p1
(dp2
S'head'
p3
(ilinked_list
Node
p4
(dp5
S'skip'
p6
NsS'data'
p7
I6
sS'next'
p8
NsbsS'tail'
p9
g4
sS'size'
p10
I1
sb.(ilinked_list
LinkedList
p1
(dp2
S'head'
p3
(ilinked_list
Node
p4
(dp5
S'skip'
p6
NsS'data'
p7
I6
sS'next'
p8
NsbsS'tail'
p9
g4
sS'size'
p10
I1
sb.(ilinked_list
LinkedList
p1
(dp2
S'head'
p3
(ilinked_list
Node
p4
(dp5
S'skip'
p6
NsS'data'
p7
I6
sS'next'
p8
NsbsS'tail'
p9
g4
sS'size'
p10
I1
sb.(ilinked_list
LinkedList
p1
(dp2
S'head'
p3
(ilinked_list
Node
p4
(dp5
S'skip'
p6
NsS'data'
p7
I6
sS'next'
p8
NsbsS'tail'
p9
g4
sS'size'
p10
I1
sb.(ilinked_list
LinkedList
p1
(dp2
S'head'
p3
(ilinked_list
Node
p4
(dp5
S'skip'
p6
NsS'data'
p7
I6
sS'next'
p8
NsbsS'tail'
p9
g4
sS'size'
p10
I1
sb.(ilinked_list
LinkedList
p1
(dp2
S'head'
p3
(ilinked_list
Node
p4
(dp5
S'skip'
p6
NsS'data'
p7
I6
sS'next'
p8
NsbsS'tail'
p9
g4
sS'size'
p10
I1
sb.(ilinked_list
LinkedList
p1
(dp2
S'head'
p3
(ilinked_list
Node
p4
(dp5
S'skip'
p6
NsS'data'
p7
I6
sS'next'
p8
NsbsS'tail'
p9
g4
sS'size'
p10
I1
sb.(ilinked_list
LinkedList
p1
(dp2
S'head'
p3
(ilinked_list
Node
p4
(dp5
S'skip'
p6
NsS'data'
p7
I6
sS'next'
p8
NsbsS'tail'
p9
g4
sS'size'
p10
I1
sb.(ilinked_list
LinkedList
p1
(dp2
S'head'
p3
(ilinked_list
Node
p4
(dp5
S'skip'
p6
NsS'data'
p7
I6
sS'next'
p8
(ilinked_list
Node
p9
(dp10
g6
Nsg7
I18
sg8
NsbsbsS'tail'
p11
g9
sS'size'
p12
I2
sb.(ilinked_list
LinkedList
p1
(dp2
S'head'
p3
(ilinked_list
Node
p4
(dp5
S'skip'
p6
NsS'data'
p7
I6
sS'next'
p8
(ilinked_list
Node
p9
(dp10
g6
Nsg7
I13
sg8
NsbsbsS'tail'
p11
g9
sS'size'
p12
I2
sb.(ilinked_list
LinkedList
p1
(dp2
S'head'
p3
(ilinked_list
Node
p4
(dp5
S'skip'
p6
NsS'data'
p7
I6
sS'next'
p8
NsbsS'tail'
p9
g4
sS'size'
p10
I1
sb.(ilinked_list
LinkedList
p1
(dp2
S'head'
p3
(ilinked_list
Node
p4
(dp5
S'skip'
p6
NsS'data'
p7
I6
sS'next'
p8
(ilinked_list
Node
p9
(dp10
g6
Nsg7
I18
sg8
NsbsbsS'tail'
p11
g9
sS'size'
p12
I2
sb.(ilinked_list
LinkedList
p1
(dp2
S'head'
p3
(ilinked_list
Node
p4
(dp5
S'skip'
p6
NsS'data'
p7
I6
sS'next'
p8
NsbsS'tail'
p9
g4
sS'size'
p10
I1
sb.(ilinked_list
LinkedList
p1
(dp2
S'head'
p3
(ilinked_list
Node
p4
(dp5
S'skip'
p6
NsS'data'
p7
I6
sS'next'
p8
NsbsS'tail'
p9
g4
sS'size'
p10
I1
sb.(ilinked_list
LinkedList
p1
(dp2
S'head'
p3
(ilinked_list
Node
p4
(dp5
S'skip'
p6
NsS'data'
p7
I6
sS'next'
p8
NsbsS'tail'
p9
g4
sS'size'
p10
I1
sb.(ilinked_list
LinkedList
p1
(dp2
S'head'
p3
(ilinked_list
Node
p4
(dp5
S'skip'
p6
NsS'data'
p7
I6
sS'next'
p8
NsbsS'tail'
p9
g4
sS'size'
p10
I1
sb.(ilinked_list
LinkedList
p1
(dp2
S'head'
p3
(ilinked_list
Node
p4
(dp5
S'skip'
p6
NsS'data'
p7
I6
sS'next'
p8
NsbsS'tail'
p9
g4
sS'size'
p10
I1
sb.(ilinked_list
LinkedList
p1
(dp2
S'head'
p3
(ilinked_list
Node
p4
(dp5
S'skip'
p6
NsS'data'
p7
I6
sS'next'
p8
NsbsS'tail'
p9
g4
sS'size'
p10
I1
sb.(ilinked_list
LinkedList
p1
(dp2
S'head'
p3
(ilinked_list
Node
p4
(dp5
S'skip'
p6
NsS'data'
p7
I6
sS'next'
p8
NsbsS'tail'
p9
g4
sS'size'
p10
I1
sb.(ilinked_list
LinkedList
p1
(dp2
S'head'
p3
(ilinked_list
Node
p4
(dp5
S'skip'
p6
NsS'data'
p7
I6
sS'next'
p8
NsbsS'tail'
p9
g4
sS'size'
p10
I1
sb.(ilinked_list
LinkedList
p1
(dp2
S'head'
p3
(ilinked_list
Node
p4
(dp5
S'skip'
p6
NsS'data'
p7
I6
sS'next'
p8
NsbsS'tail'
p9
g4
sS'size'
p10
I1
sb.(ilinked_list
LinkedList
p1
(dp2
S'head'
p3
(ilinked_list
Node
p4
(dp5
S'skip'
p6
NsS'data'
p7
I6
sS'next'
p8
NsbsS'tail'
p9
g4
sS'size'
p10
I1
sb.(ilinked_list
LinkedList
p1
(dp2
S'head'
p3
(ilinked_list
Node
p4
(dp5
S'skip'
p6
NsS'data'
p7
I6
sS'next'
p8
(ilinked_list
Node
p9
(dp10
g6
Nsg7
I10
sg8
NsbsbsS'tail'
p11
g9
sS'size'
p12
I2
sb.(ilinked_list
LinkedList
p1
(dp2
S'head'
p3
(ilinked_list
Node
p4
(dp5
S'skip'
p6
NsS'data'
p7
I6
sS'next'
p8
NsbsS'tail'
p9
g4
sS'size'
p10
I1
sb.(ilinked_list
LinkedList
p1
(dp2
S'head'
p3
(ilinked_list
Node
p4
(dp5
S'skip'
p6
(ilinked_list
Node
p7
(dp8
g6
NsS'data'
p9
I10
sS'next'
p10
Nsbsg9
I6
sg10
(ilinked_list
Node
p11
(dp12
g6
Nsg9
I9
sg10
g7
sbsbsS'tail'
p13
g7
sS'size'
p14
I3
sb.(ilinked_list
LinkedList
p1
(dp2
S'head'
p3
(ilinked_list
Node
p4
(dp5
S'skip'
p6
NsS'data'
p7
I6
sS'next'
p8
NsbsS'tail'
p9
g4
sS'size'
p10
I1
sb.(ilinked_list
LinkedList
p1
(dp2
S'head'
p3
(ilinked_list
Node
p4
(dp5
S'skip'
p6
NsS'data'
p7
I6
sS'next'
p8
(ilinked_list
Node
p9
(dp10
g6
Nsg7
I13
sg8
NsbsbsS'tail'
p11
g9
sS'size'
p12
I2
sb.(ilinked_list
LinkedList
p1
(dp2
S'head'
p3
(ilinked_list
Node
p4
(dp5
S'skip'
p6
NsS'data'
p7
I6
sS'next'
p8
NsbsS'tail'
p9
g4
sS'size'
p10
I1
sb.(ilinked_list
LinkedList
p1
(dp2
S'head'
p3
(ilinked_list
Node
p4
(dp5
S'skip'
p6
NsS'data'
p7
I6
sS'next'
p8
NsbsS'tail'
p9
g4
sS'size'
p10
I1
sb.(ilinked_list
LinkedList
p1
(dp2
S'head'
p3
(ilinked_list
Node
p4
(dp5
S'skip'
p6
NsS'data'
p7
I6
sS'next'
p8
NsbsS'tail'
p9
g4
sS'size'
p10
I1
sb.(ilinked_list
LinkedList
p1
(dp2
S'head'
p3
(ilinked_list
Node
p4
(dp5
S'skip'
p6
NsS'data'
p7
I6
sS'next'
p8
NsbsS'tail'
p9
g4
sS'size'
p10
I1
sb.(ilinked_list
LinkedList
p1
(dp2
S'head'
p3
(ilinked_list
Node
p4
(dp5
S'skip'
p6
NsS'data'
p7
I6
sS'next'
p8
NsbsS'tail'
p9
g4
sS'size'
p10
I1
sb.(ilinked_list
LinkedList
p1
(dp2
S'head'
p3
(ilinked_list
Node
p4
(dp5
S'skip'
p6
NsS'data'
p7
I6
sS'next'
p8
NsbsS'tail'
p9
g4
sS'size'
p10
I1
sb.(ilinked_list
LinkedList
p1
(dp2
S'head'
p3
(ilinked_list
Node
p4
(dp5
S'skip'
p6
NsS'data'
p7
I6
sS'next'
p8
NsbsS'tail'
p9
g4
sS'size'
p10
I1
sb.(ilinked_list
LinkedList
p1
(dp2
S'head'
p3
(ilinked_list
Node
p4
(dp5
S'skip'
p6
NsS'data'
p7
I6
sS'next'
p8
NsbsS'tail'
p9
g4
sS'size'
p10
I1
sb.(ilinked_list
LinkedList
p1
(dp2
S'head'
p3
(ilinked_list
Node
p4
(dp5
S'skip'
p6
NsS'data'
p7
I6
sS'next'
p8
NsbsS'tail'
p9
g4
sS'size'
p10
I1
sb.(ilinked_list
LinkedList
p1
(dp2
S'head'
p3
(ilinked_list
Node
p4
(dp5
S'skip'
p6
NsS'data'
p7
I6
sS'next'
p8
(ilinked_list
Node
p9
(dp10
g6
Nsg7
I13
sg8
NsbsbsS'tail'
p11
g9
sS'size'
p12
I2
sb.(ilinked_list
LinkedList
p1
(dp2
S'head'
p3
(ilinked_list
Node
p4
(dp5
S'skip'
p6
NsS'data'
p7
I6
sS'next'
p8
NsbsS'tail'
p9
g4
sS'size'
p10
I1
sb.(ilinked_list
LinkedList
p1
(dp2
S'head'
p3
(ilinked_list
Node
p4
(dp5
S'skip'
p6
NsS'data'
p7
I9
sS'next'
p8
NsbsS'tail'
p9
g4
sS'size'
p10
I1
sb.(ilinked_list
LinkedList
p1
(dp2
S'head'
p3
(ilinked_list
Node
p4
(dp5
S'skip'
p6
NsS'data'
p7
I9
sS'next'
p8
(ilinked_list
Node
p9
(dp10
g6
Nsg7
I18
sg8
NsbsbsS'tail'
p11
g9
sS'size'
p12
I2
sb.(ilinked_list
LinkedList
p1
(dp2
S'head'
p3
(ilinked_list
Node
p4
(dp5
S'skip'
p6
NsS'data'
p7
I9
sS'next'
p8
NsbsS'tail'
p9
g4
sS'size'
p10
I1
sb.(ilinked_list
LinkedList
p1
(dp2
S'head'
p3
(ilinked_list
Node
p4
(dp5
S'skip'
p6
NsS'data'
p7
I9
sS'next'
p8
NsbsS'tail'
p9
g4
sS'size'
p10
I1
sb.(ilinked_list
LinkedList
p1
(dp2
S'head'
p3
(ilinked_list
Node
p4
(dp5
S'skip'
p6
(ilinked_list
Node
p7
(dp8
g6
(ilinked_list
Node
p9
(dp10
g6
NsS'data'
p11
I18
sS'next'
p12
Nsbsg11
I12
sg12
(ilinked_list
Node
p13
(dp14
g6
Nsg11
I13
sg12
(ilinked_list
Node
p15
(dp16
g6
Nsg11
I14
sg12
g9
sbsbsbsg11
I9
sg12
(ilinked_list
Node
p17
(dp18
g6
Nsg11
I10
sg12
(ilinked_list
Node
p19
(dp20
g6
Nsg11
I11
sg12
g7
sbsbsbsS'tail'
p21
g9
sS'size'
p22
I7
sb.(ilinked_list
LinkedList
p1
(dp2
S'head'
p3
(ilinked_list
Node
p4
(dp5
S'skip'
p6
NsS'data'
p7
I9
sS'next'
p8
NsbsS'tail'
p9
g4
sS'size'
p10
I1
sb.(ilinked_list
LinkedList
p1
(dp2
S'head'
p3
(ilinked_list
Node
p4
(dp5
S'skip'
p6
(ilinked_list
Node
p7
(dp8
g6
(ilinked_list
Node
p9
(dp10
g6
NsS'data'
p11
I18
sS'next'
p12
Nsbsg11
I13
sg12
g9
sbsg11
I9
sg12
(ilinked_list
Node
p13
(dp14
g6
Nsg11
I11
sg12
g7
sbsbsS'tail'
p15
g9
sS'size'
p16
I4
sb.(ilinked_list
LinkedList
p1
(dp2
S'head'
p3
(ilinked_list
Node
p4
(dp5
S'skip'
p6
NsS'data'
p7
I9
sS'next'
p8
(ilinked_list
Node
p9
(dp10
g6
Nsg7
I12
sg8
NsbsbsS'tail'
p11
g9
sS'size'
p12
I2
sb.(ilinked_list
LinkedList
p1
(dp2
S'head'
p3
(ilinked_list
Node
p4
(dp5
S'skip'
p6
NsS'data'
p7
I9
sS'next'
p8
NsbsS'tail'
p9
g4
sS'size'
p10
I1
sb.(ilinked_list
LinkedList
p1
(dp2
S'head'
p3
(ilinked_list
Node
p4
(dp5
S'skip'
p6
(ilinked_list
Node
p7
(dp8
g6
(ilinked_list
Node
p9
(dp10
g6
NsS'data'
p11
I18
sS'next'
p12
Nsbsg11
I12
sg12
(ilinked_list
Node
p13
(dp14
g6
Nsg11
I13
sg12
(ilinked_list
Node
p15
(dp16
g6
Nsg11
I14
sg12
g9
sbsbsbsg11
I9
sg12
(ilinked_list
Node
p17
(dp18
g6
Nsg11
I10
sg12
(ilinked_list
Node
p19
(dp20
g6
Nsg11
I11
sg12
g7
sbsbsbsS'tail'
p21
g9
sS'size'
p22
I7
sb.(ilinked_list
LinkedList
p1
(dp2
S'head'
p3
(ilinked_list
Node
p4
(dp5
S'skip'
p6
NsS'data'
p7
I9
sS'next'
p8
NsbsS'tail'
p9
g4
sS'size'
p10
I1
sb.(ilinked_list
LinkedList
p1
(dp2
S'head'
p3
(ilinked_list
Node
p4
(dp5
S'skip'
p6
NsS'data'
p7
I9
sS'next'
p8
NsbsS'tail'
p9
g4
sS'size'
p10
I1
sb.(ilinked_list
LinkedList
p1
(dp2
S'head'
p3
(ilinked_list
Node
p4
(dp5
S'skip'
p6
NsS'data'
p7
I9
sS'next'
p8
NsbsS'tail'
p9
g4
sS'size'
p10
I1
sb.(ilinked_list
LinkedList
p1
(dp2
S'head'
p3
(ilinked_list
Node
p4
(dp5
S'skip'
p6
NsS'data'
p7
I9
sS'next'
p8
NsbsS'tail'
p9
g4
sS'size'
p10
I1
sb.(ilinked_list
LinkedList
p1
(dp2
S'head'
p3
(ilinked_list
Node
p4
(dp5
S'skip'
p6
(ilinked_list
Node
p7
(dp8
g6
(ilinked_list
Node
p9
(dp10
g6
NsS'data'
p11
I18
sS'next'
p12
Nsbsg11
I12
sg12
g9
sbsg11
I9
sg12
(ilinked_list
Node
p13
(dp14
g6
Nsg11
I10
sg12
g7
sbsbsS'tail'
p15
g9
sS'size'
p16
I4
sb.(ilinked_list
LinkedList
p1
(dp2
S'head'
p3
(ilinked_list
Node
p4
(dp5
S'skip'
p6
NsS'data'
p7
I9
sS'next'
p8
NsbsS'tail'
p9
g4
sS'size'
p10
I1
sb.(ilinked_list
LinkedList
p1
(dp2
S'head'
p3
(ilinked_list
Node
p4
(dp5
S'skip'
p6
(ilinked_list
Node
p7
(dp8
g6
NsS'data'
p9
I11
sS'next'
p10
Nsbsg9
I9
sg10
(ilinked_list
Node
p11
(dp12
g6
Nsg9
I10
sg10
g7
sbsbsS'tail'
p13
g7
sS'size'
p14
I3
sb.(ilinked_list
LinkedList
p1
(dp2
S'head'
p3
(ilinked_list
Node
p4
(dp5
S'skip'
p6
NsS'data'
p7
I9
sS'next'
p8
(ilinked_list
Node
p9
(dp10
g6
Nsg7
I12
sg8
NsbsbsS'tail'
p11
g9
sS'size'
p12
I2
sb.(ilinked_list
LinkedList
p1
(dp2
S'head'
p3
(ilinked_list
Node
p4
(dp5
S'skip'
p6
NsS'data'
p7
I9
sS'next'
p8
(ilinked_list
Node
p9
(dp10
g6
Nsg7
I10
sg8
NsbsbsS'tail'
p11
g9
sS'size'
p12
I2
sb.(ilinked_list
LinkedList
p1
(dp2
S'head'
p3
(ilinked_list
Node
p4
(dp5
S'skip'
p6
(ilinked_list
Node
p7
(dp8
g6
(ilinked_list
Node
p9
(dp10
g6
NsS'data'
p11
I18
sS'next'
p12
Nsbsg11
I12
sg12
g9
sbsg11
I9
sg12
(ilinked_list
Node
p13
(dp14
g6
Nsg11
I10
sg12
g7
sbsbsS'tail'
p15
g9
sS'size'
p16
I4
sb.(ilinked_list
LinkedList
p1
(dp2
S'head'
p3
(ilinked_list
Node
p4
(dp5
S'skip'
p6
NsS'data'
p7
I9
sS'next'
p8
NsbsS'tail'
p9
g4
sS'size'
p10
I1
sb.(ilinked_list
LinkedList
p1
(dp2
S'head'
p3
(ilinked_list
Node
p4
(dp5
S'skip'
p6
NsS'data'
p7
I9
sS'next'
p8
NsbsS'tail'
p9
g4
sS'size'
p10
I1
sb.(ilinked_list
LinkedList
p1
(dp2
S'head'
p3
(ilinked_list
Node
p4
(dp5
S'skip'
p6
NsS'data'
p7
I9
sS'next'
p8
NsbsS'tail'
p9
g4
sS'size'
p10
I1
sb.(ilinked_list
LinkedList
p1
(dp2
S'head'
p3
(ilinked_list
Node
p4
(dp5
S'skip'
p6
NsS'data'
p7
I9
sS'next'
p8
(ilinked_list
Node
p9
(dp10
g6
Nsg7
I10
sg8
NsbsbsS'tail'
p11
g9
sS'size'
p12
I2
sb.(ilinked_list
LinkedList
p1
(dp2
S'head'
p3
(ilinked_list
Node
p4
(dp5
S'skip'
p6
NsS'data'
p7
I9
sS'next'
p8
NsbsS'tail'
p9
g4
sS'size'
p10
I1
sb.(ilinked_list
LinkedList
p1
(dp2
S'head'
p3
(ilinked_list
Node
p4
(dp5
S'skip'
p6
(ilinked_list
Node
p7
(dp8
g6
NsS'data'
p9
I12
sS'next'
p10
Nsbsg9
I9
sg10
(ilinked_list
Node
p11
(dp12
g6
Nsg9
I10
sg10
g7
sbsbsS'tail'
p13
g7
sS'size'
p14
I3
sb.(ilinked_list
LinkedList
p1
(dp2
S'head'
p3
(ilinked_list
Node
p4
(dp5
S'skip'
p6
NsS'data'
p7
I10
sS'next'
p8
NsbsS'tail'
p9
g4
sS'size'
p10
I1
sb.(ilinked_list
LinkedList
p1
(dp2
S'head'
p3
(ilinked_list
Node
p4
(dp5
S'skip'
p6
NsS'data'
p7
I10
sS'next'
p8
NsbsS'tail'
p9
g4
sS'size'
p10
I1
sb.(ilinked_list
LinkedList
p1
(dp2
S'head'
p3
(ilinked_list
Node
p4
(dp5
S'skip'
p6
NsS'data'
p7
I10
sS'next'
p8
NsbsS'tail'
p9
g4
sS'size'
p10
I1
sb.(ilinked_list
LinkedList
p1
(dp2
S'head'
p3
(ilinked_list
Node
p4
(dp5
S'skip'
p6
NsS'data'
p7
I10
sS'next'
p8
NsbsS'tail'
p9
g4
sS'size'
p10
I1
sb.(ilinked_list
LinkedList
p1
(dp2
S'head'
p3
(ilinked_list
Node
p4
(dp5
S'skip'
p6
NsS'data'
p7
I10
sS'next'
p8
NsbsS'tail'
p9
g4
sS'size'
p10
I1
sb.(ilinked_list
LinkedList
p1
(dp2
S'head'
p3
(ilinked_list
Node
p4
(dp5
S'skip'
p6
NsS'data'
p7
I10
sS'next'
p8
NsbsS'tail'
p9
g4
sS'size'
p10
I1
sb.(ilinked_list
LinkedList
p1
(dp2
S'head'
p3
(ilinked_list
Node
p4
(dp5
S'skip'
p6
(ilinked_list
Node
p7
(dp8
g6
NsS'data'
p9
I18
sS'next'
p10
Nsbsg9
I10
sg10
(ilinked_list
Node
p11
(dp12
g6
Nsg9
I12
sg10
g7
sbsbsS'tail'
p13
g7
sS'size'
p14
I3
sb.(ilinked_list
LinkedList
p1
(dp2
S'head'
p3
(ilinked_list
Node
p4
(dp5
S'skip'
p6
NsS'data'
p7
I10
sS'next'
p8
NsbsS'tail'
p9
g4
sS'size'
p10
I1
sb.(ilinked_list
LinkedList
p1
(dp2
S'head'
p3
(ilinked_list
Node
p4
(dp5
S'skip'
p6
NsS'data'
p7
I10
sS'next'
p8
NsbsS'tail'
p9
g4
sS'size'
p10
I1
sb.(ilinked_list
LinkedList
p1
(dp2
S'head'
p3
(ilinked_list
Node
p4
(dp5
S'skip'
p6
NsS'data'
p7
I10
sS'next'
p8
NsbsS'tail'
p9
g4
sS'size'
p10
I1
sb.(ilinked_list
LinkedList
p1
(dp2
S'head'
p3
(ilinked_list
Node
p4
(dp5
S'skip'
p6
NsS'data'
p7
I10
sS'next'
p8
NsbsS'tail'
p9
g4
sS'size'
p10
I1
sb.(ilinked_list
LinkedList
p1
(dp2
S'head'
p3
(ilinked_list
Node
p4
(dp5
S'skip'
p6
NsS'data'
p7
I10
sS'next'
p8
NsbsS'tail'
p9
g4
sS'size'
p10
I1
sb.(ilinked_list
LinkedList
p1
(dp2
S'head'
p3
(ilinked_list
Node
p4
(dp5
S'skip'
p6
NsS'data'
p7
I10
sS'next'
p8
NsbsS'tail'
p9
g4
sS'size'
p10
I1
sb.(ilinked_list
LinkedList
p1
(dp2
S'head'
p3
(ilinked_list
Node
p4
(dp5
S'skip'
p6
NsS'data'
p7
I10
sS'next'
p8
NsbsS'tail'
p9
g4
sS'size'
p10
I1
sb.(ilinked_list
LinkedList
p1
(dp2
S'head'
p3
(ilinked_list
Node
p4
(dp5
S'skip'
p6
NsS'data'
p7
I10
sS'next'
p8
(ilinked_list
Node
p9
(dp10
g6
Nsg7
I18
sg8
NsbsbsS'tail'
p11
g9
sS'size'
p12
I2
sb.(ilinked_list
LinkedList
p1
(dp2
S'head'
p3
(ilinked_list
Node
p4
(dp5
S'skip'
p6
NsS'data'
p7
I10
sS'next'
p8
NsbsS'tail'
p9
g4
sS'size'
p10
I1
sb.(ilinked_list
LinkedList
p1
(dp2
S'head'
p3
(ilinked_list
Node
p4
(dp5
S'skip'
p6
NsS'data'
p7
I10
sS'next'
p8
NsbsS'tail'
p9
g4
sS'size'
p10
I1
sb.(ilinked_list
LinkedList
p1
(dp2
S'head'
p3
(ilinked_list
Node
p4
(dp5
S'skip'
p6
NsS'data'
p7
I10
sS'next'
p8
NsbsS'tail'
p9
g4
sS'size'
p10
I1
sb.(ilinked_list
LinkedList
p1
(dp2
S'head'
p3
(ilinked_list
Node
p4
(dp5
S'skip'
p6
NsS'data'
p7
I10
sS'next'
p8
NsbsS'tail'
p9
g4
sS'size'
p10
I1
sb.(ilinked_list
LinkedList
p1
(dp2
S'head'
p3
(ilinked_list
Node
p4
(dp5
S'skip'
p6
NsS'data'
p7
I10
sS'next'
p8
NsbsS'tail'
p9
g4
sS'size'
p10
I1
sb.(ilinked_list
LinkedList
p1
(dp2
S'head'
p3
(ilinked_list
Node
p4
(dp5
S'skip'
p6
NsS'data'
p7
I10
sS'next'
p8
(ilinked_list
Node
p9
(dp10
g6
Nsg7
I12
sg8
NsbsbsS'tail'
p11
g9
sS'size'
p12
I2
sb.(ilinked_list
LinkedList
p1
(dp2
S'head'
p3
(ilinked_list
Node
p4
(dp5
S'skip'
p6
NsS'data'
p7
I10
sS'next'
p8
NsbsS'tail'
p9
g4
sS'size'
p10
I1
sb.(ilinked_list
LinkedList
p1
(dp2
S'head'
p3
(ilinked_list
Node
p4
(dp5
S'skip'
p6
NsS'data'
p7
I10
sS'next'
p8
NsbsS'tail'
p9
g4
sS'size'
p10
I1
sb.(ilinked_list
LinkedList
p1
(dp2
S'head'
p3
(ilinked_list
Node
p4
(dp5
S'skip'
p6
NsS'data'
p7
I10
sS'next'
p8
NsbsS'tail'
p9
g4
sS'size'
p10
I1
sb.(ilinked_list
LinkedList
p1
(dp2
S'head'
p3
(ilinked_list
Node
p4
(dp5
S'skip'
p6
NsS'data'
p7
I10
sS'next'
p8
(ilinked_list
Node
p9
(dp10
g6
Nsg7
I12
sg8
NsbsbsS'tail'
p11
g9
sS'size'
p12
I2
sb.(ilinked_list
LinkedList
p1
(dp2
S'head'
p3
(ilinked_list
Node
p4
(dp5
S'skip'
p6
NsS'data'
p7
I10
sS'next'
p8
NsbsS'tail'
p9
g4
sS'size'
p10
I1
sb.(ilinked_list
LinkedList
p1
(dp2
S'head'
p3
(ilinked_list
Node
p4
(dp5
S'skip'
p6
NsS'data'
p7
I10
sS'next'
p8
NsbsS'tail'
p9
g4
sS'size'
p10
I1
sb.(ilinked_list
LinkedList
p1
(dp2
S'head'
p3
(ilinked_list
Node
p4
(dp5
S'skip'
p6
NsS'data'
p7
I10
sS'next'
p8
NsbsS'tail'
p9
g4
sS'size'
p10
I1
sb.(ilinked_list
LinkedList
p1
(dp2
S'head'
p3
(ilinked_list
Node
p4
(dp5
S'skip'
p6
NsS'data'
p7
I10
sS'next'
p8
NsbsS'tail'
p9
g4
sS'size'
p10
I1
sb.(ilinked_list
LinkedList
p1
(dp2
S'head'
p3
(ilinked_list
Node
p4
(dp5
S'skip'
p6
NsS'data'
p7
I10
sS'next'
p8
(ilinked_list
Node
p9
(dp10
g6
Nsg7
I13
sg8
NsbsbsS'tail'
p11
g9
sS'size'
p12
I2
sb.(ilinked_list
LinkedList
p1
(dp2
S'head'
p3
(ilinked_list
Node
p4
(dp5
S'skip'
p6
NsS'data'
p7
I10
sS'next'
p8
NsbsS'tail'
p9
g4
sS'size'
p10
I1
sb.(ilinked_list
LinkedList
p1
(dp2
S'head'
p3
(ilinked_list
Node
p4
(dp5
S'skip'
p6
NsS'data'
p7
I10
sS'next'
p8
(ilinked_list
Node
p9
(dp10
g6
Nsg7
I14
sg8
NsbsbsS'tail'
p11
g9
sS'size'
p12
I2
sb.(ilinked_list
LinkedList
p1
(dp2
S'head'
p3
(ilinked_list
Node
p4
(dp5
S'skip'
p6
NsS'data'
p7
I10
sS'next'
p8
NsbsS'tail'
p9
g4
sS'size'
p10
I1
sb.(ilinked_list
LinkedList
p1
(dp2
S'head'
p3
(ilinked_list
Node
p4
(dp5
S'skip'
p6
NsS'data'
p7
I10
sS'next'
p8
NsbsS'tail'
p9
g4
sS'size'
p10
I1
sb.(ilinked_list
LinkedList
p1
(dp2
S'head'
p3
(ilinked_list
Node
p4
(dp5
S'skip'
p6
NsS'data'
p7
I10
sS'next'
p8
NsbsS'tail'
p9
g4
sS'size'
p10
I1
sb.(ilinked_list
LinkedList
p1
(dp2
S'head'
p3
(ilinked_list
Node
p4
(dp5
S'skip'
p6
NsS'data'
p7
I10
sS'next'
p8
NsbsS'tail'
p9
g4
sS'size'
p10
I1
sb.(ilinked_list
LinkedList
p1
(dp2
S'head'
p3
(ilinked_list
Node
p4
(dp5
S'skip'
p6
NsS'data'
p7
I10
sS'next'
p8
NsbsS'tail'
p9
g4
sS'size'
p10
I1
sb.(ilinked_list
LinkedList
p1
(dp2
S'head'
p3
(ilinked_list
Node
p4
(dp5
S'skip'
p6
NsS'data'
p7
I10
sS'next'
p8
NsbsS'tail'
p9
g4
sS'size'
p10
I1
sb.(ilinked_list
LinkedList
p1
(dp2
S'head'
p3
(ilinked_list
Node
p4
(dp5
S'skip'
p6
NsS'data'
p7
I10
sS'next'
p8
NsbsS'tail'
p9
g4
sS'size'
p10
I1
sb.(ilinked_list
LinkedList
p1
(dp2
S'head'
p3
(ilinked_list
Node
p4
(dp5
S'skip'
p6
NsS'data'
p7
I10
sS'next'
p8
NsbsS'tail'
p9
g4
sS'size'
p10
I1
sb.(ilinked_list
LinkedList
p1
(dp2
S'head'
p3
(ilinked_list
Node
p4
(dp5
S'skip'
p6
NsS'data'
p7
I10
sS'next'
p8
NsbsS'tail'
p9
g4
sS'size'
p10
I1
sb.(ilinked_list
LinkedList
p1
(dp2
S'head'
p3
(ilinked_list
Node
p4
(dp5
S'skip'
p6
NsS'data'
p7
I10
sS'next'
p8
NsbsS'tail'
p9
g4
sS'size'
p10
I1
sb.(ilinked_list
LinkedList
p1
(dp2
S'head'
p3
(ilinked_list
Node
p4
(dp5
S'skip'
p6
NsS'data'
p7
I10
sS'next'
p8
NsbsS'tail'
p9
g4
sS'size'
p10
I1
sb.(ilinked_list
LinkedList
p1
(dp2
S'head'
p3
(ilinked_list
Node
p4
(dp5
S'skip'
p6
NsS'data'
p7
I10
sS'next'
p8
(ilinked_list
Node
p9
(dp10
g6
Nsg7
I12
sg8
NsbsbsS'tail'
p11
g9
sS'size'
p12
I2
sb.(ilinked_list
LinkedList
p1
(dp2
S'head'
p3
(ilinked_list
Node
p4
(dp5
S'skip'
p6
NsS'data'
p7
I10
sS'next'
p8
NsbsS'tail'
p9
g4
sS'size'
p10
I1
sb.(ilinked_list
LinkedList
p1
(dp2
S'head'
p3
(ilinked_list
Node
p4
(dp5
S'skip'
p6
NsS'data'
p7
I10
sS'next'
p8
(ilinked_list
Node
p9
(dp10
g6
Nsg7
I18
sg8
NsbsbsS'tail'
p11
g9
sS'size'
p12
I2
sb.(ilinked_list
LinkedList
p1
(dp2
S'head'
p3
(ilinked_list
Node
p4
(dp5
S'skip'
p6
NsS'data'
p7
I10
sS'next'
p8
NsbsS'tail'
p9
g4
sS'size'
p10
I1
sb.(ilinked_list
LinkedList
p1
(dp2
S'head'
p3
(ilinked_list
Node
p4
(dp5
S'skip'
p6
NsS'data'
p7
I10
sS'next'
p8
NsbsS'tail'
p9
g4
sS'size'
p10
I1
sb.(ilinked_list
LinkedList
p1
(dp2
S'head'
p3
(ilinked_list
Node
p4
(dp5
S'skip'
p6
NsS'data'
p7
I10
sS'next'
p8
NsbsS'tail'
p9
g4
sS'size'
p10
I1
sb.(ilinked_list
LinkedList
p1
(dp2
S'head'
p3
(ilinked_list
Node
p4
(dp5
S'skip'
p6
NsS'data'
p7
I10
sS'next'
p8
NsbsS'tail'
p9
g4
sS'size'
p10
I1
sb.(ilinked_list
LinkedList
p1
(dp2
S'head'
p3
(ilinked_list
Node
p4
(dp5
S'skip'
p6
NsS'data'
p7
I10
sS'next'
p8
NsbsS'tail'
p9
g4
sS'size'
p10
I1
sb.(ilinked_list
LinkedList
p1
(dp2
S'head'
p3
(ilinked_list
Node
p4
(dp5
S'skip'
p6
NsS'data'
p7
I10
sS'next'
p8
NsbsS'tail'
p9
g4
sS'size'
p10
I1
sb.(ilinked_list
LinkedList
p1
(dp2
S'head'
p3
(ilinked_list
Node
p4
(dp5
S'skip'
p6
NsS'data'
p7
I10
sS'next'
p8
NsbsS'tail'
p9
g4
sS'size'
p10
I1
sb.(ilinked_list
LinkedList
p1
(dp2
S'head'
p3
(ilinked_list
Node
p4
(dp5
S'skip'
p6
NsS'data'
p7
I10
sS'next'
p8
NsbsS'tail'
p9
g4
sS'size'
p10
I1
sb.(ilinked_list
LinkedList
p1
(dp2
S'head'
p3
(ilinked_list
Node
p4
(dp5
S'skip'
p6
NsS'data'
p7
I10
sS'next'
p8
NsbsS'tail'
p9
g4
sS'size'
p10
I1
sb.(ilinked_list
LinkedList
p1
(dp2
S'head'
p3
(ilinked_list
Node
p4
(dp5
S'skip'
p6
NsS'data'
p7
I10
sS'next'
p8
(ilinked_list
Node
p9
(dp10
g6
Nsg7
I18
sg8
NsbsbsS'tail'
p11
g9
sS'size'
p12
I2
sb.(ilinked_list
LinkedList
p1
(dp2
S'head'
p3
(ilinked_list
Node
p4
(dp5
S'skip'
p6
NsS'data'
p7
I10
sS'next'
p8
NsbsS'tail'
p9
g4
sS'size'
p10
I1
sb.(ilinked_list
LinkedList
p1
(dp2
S'head'
p3
(ilinked_list
Node
p4
(dp5
S'skip'
p6
NsS'data'
p7
I10
sS'next'
p8
NsbsS'tail'
p9
g4
sS'size'
p10
I1
sb.(ilinked_list
LinkedList
p1
(dp2
S'head'
p3
(ilinked_list
Node
p4
(dp5
S'skip'
p6
NsS'data'
p7
I10
sS'next'
p8
NsbsS'tail'
p9
g4
sS'size'
p10
I1
sb.(ilinked_list
LinkedList
p1
(dp2
S'head'
p3
(ilinked_list
Node
p4
(dp5
S'skip'
p6
(ilinked_list
Node
p7
(dp8
g6
NsS'data'
p9
I18
sS'next'
p10
Nsbsg9
I10
sg10
(ilinked_list
Node
p11
(dp12
g6
Nsg9
I12
sg10
g7
sbsbsS'tail'
p13
g7
sS'size'
p14
I3
sb.(ilinked_list
LinkedList
p1
(dp2
S'head'
p3
(ilinked_list
Node
p4
(dp5
S'skip'
p6
NsS'data'
p7
I10
sS'next'
p8
NsbsS'tail'
p9
g4
sS'size'
p10
I1
sb.(ilinked_list
LinkedList
p1
(dp2
S'head'
p3
(ilinked_list
Node
p4
(dp5
S'skip'
p6
NsS'data'
p7
I10
sS'next'
p8
NsbsS'tail'
p9
g4
sS'size'
p10
I1
sb.(ilinked_list
LinkedList
p1
(dp2
S'head'
p3
(ilinked_list
Node
p4
(dp5
S'skip'
p6
NsS'data'
p7
I10
sS'next'
p8
NsbsS'tail'
p9
g4
sS'size'
p10
I1
sb.(ilinked_list
LinkedList
p1
(dp2
S'head'
p3
(ilinked_list
Node
p4
(dp5
S'skip'
p6
NsS'data'
p7
I10
sS'next'
p8
NsbsS'tail'
p9
g4
sS'size'
p10
I1
sb.(ilinked_list
LinkedList
p1
(dp2
S'head'
p3
(ilinked_list
Node
p4
(dp5
S'skip'
p6
NsS'data'
p7
I10
sS'next'
p8
NsbsS'tail'
p9
g4
sS'size'
p10
I1
sb.(ilinked_list
LinkedList
p1
(dp2
S'head'
p3
(ilinked_list
Node
p4
(dp5
S'skip'
p6
NsS'data'
p7
I10
sS'next'
p8
NsbsS'tail'
p9
g4
sS'size'
p10
I1
sb.(ilinked_list
LinkedList
p1
(dp2
S'head'
p3
(ilinked_list
Node
p4
(dp5
S'skip'
p6
NsS'data'
p7
I10
sS'next'
p8
NsbsS'tail'
p9
g4
sS'size'
p10
I1
sb.(ilinked_list
LinkedList
p1
(dp2
S'head'
p3
(ilinked_list
Node
p4
(dp5
S'skip'
p6
NsS'data'
p7
I10
sS'next'
p8
NsbsS'tail'
p9
g4
sS'size'
p10
I1
sb.(ilinked_list
LinkedList
p1
(dp2
S'head'
p3
(ilinked_list
Node
p4
(dp5
S'skip'
p6
(ilinked_list
Node
p7
(dp8
g6
(ilinked_list
Node
p9
(dp10
g6
NsS'data'
p11
I18
sS'next'
p12
Nsbsg11
I13
sg12
(ilinked_list
Node
p13
(dp14
g6
Nsg11
I14
sg12
g9
sbsbsg11
I11
sg12
(ilinked_list
Node
p15
(dp16
g6
Nsg11
I12
sg12
g7
sbsbsS'tail'
p17
g9
sS'size'
p18
I5
sb.(ilinked_list
LinkedList
p1
(dp2
S'head'
p3
(ilinked_list
Node
p4
(dp5
S'skip'
p6
NsS'data'
p7
I11
sS'next'
p8
NsbsS'tail'
p9
g4
sS'size'
p10
I1
sb.(ilinked_list
LinkedList
p1
(dp2
S'head'
p3
(ilinked_list
Node
p4
(dp5
S'skip'
p6
NsS'data'
p7
I11
sS'next'
p8
NsbsS'tail'
p9
g4
sS'size'
p10
I1
sb.(ilinked_list
LinkedList
p1
(dp2
S'head'
p3
(ilinked_list
Node
p4
(dp5
S'skip'
p6
NsS'data'
p7
I11
sS'next'
p8
(ilinked_list
Node
p9
(dp10
g6
Nsg7
I18
sg8
NsbsbsS'tail'
p11
g9
sS'size'
p12
I2
sb.(ilinked_list
LinkedList
p1
(dp2
S'head'
p3
(ilinked_list
Node
p4
(dp5
S'skip'
p6
(ilinked_list
Node
p7
(dp8
g6
NsS'data'
p9
I18
sS'next'
p10
Nsbsg9
I11
sg10
(ilinked_list
Node
p11
(dp12
g6
Nsg9
I14
sg10
g7
sbsbsS'tail'
p13
g7
sS'size'
p14
I3
sb.(ilinked_list
LinkedList
p1
(dp2
S'head'
p3
(ilinked_list
Node
p4
(dp5
S'skip'
p6
(ilinked_list
Node
p7
(dp8
g6
NsS'data'
p9
I14
sS'next'
p10
Nsbsg9
I11
sg10
(ilinked_list
Node
p11
(dp12
g6
Nsg9
I13
sg10
g7
sbsbsS'tail'
p13
g7
sS'size'
p14
I3
sb.(ilinked_list
LinkedList
p1
(dp2
S'head'
p3
(ilinked_list
Node
p4
(dp5
S'skip'
p6
(ilinked_list
Node
p7
(dp8
g6
(ilinked_list
Node
p9
(dp10
g6
NsS'data'
p11
I18
sS'next'
p12
Nsbsg11
I13
sg12
(ilinked_list
Node
p13
(dp14
g6
Nsg11
I14
sg12
g9
sbsbsg11
I11
sg12
(ilinked_list
Node
p15
(dp16
g6
Nsg11
I12
sg12
g7
sbsbsS'tail'
p17
g9
sS'size'
p18
I5
sb.(ilinked_list
LinkedList
p1
(dp2
S'head'
p3
(ilinked_list
Node
p4
(dp5
S'skip'
p6
NsS'data'
p7
I11
sS'next'
p8
NsbsS'tail'
p9
g4
sS'size'
p10
I1
sb.(ilinked_list
LinkedList
p1
(dp2
S'head'
p3
(ilinked_list
Node
p4
(dp5
S'skip'
p6
NsS'data'
p7
I11
sS'next'
p8
NsbsS'tail'
p9
g4
sS'size'
p10
I1
sb.(ilinked_list
LinkedList
p1
(dp2
S'head'
p3
(ilinked_list
Node
p4
(dp5
S'skip'
p6
NsS'data'
p7
I11
sS'next'
p8
NsbsS'tail'
p9
g4
sS'size'
p10
I1
sb.(ilinked_list
LinkedList
p1
(dp2
S'head'
p3
(ilinked_list
Node
p4
(dp5
S'skip'
p6
(ilinked_list
Node
p7
(dp8
g6
NsS'data'
p9
I13
sS'next'
p10
Nsbsg9
I11
sg10
(ilinked_list
Node
p11
(dp12
g6
Nsg9
I12
sg10
g7
sbsbsS'tail'
p13
g7
sS'size'
p14
I3
sb.(ilinked_list
LinkedList
p1
(dp2
S'head'
p3
(ilinked_list
Node
p4
(dp5
S'skip'
p6
NsS'data'
p7
I11
sS'next'
p8
NsbsS'tail'
p9
g4
sS'size'
p10
I1
sb.(ilinked_list
LinkedList
p1
(dp2
S'head'
p3
(ilinked_list
Node
p4
(dp5
S'skip'
p6
NsS'data'
p7
I11
sS'next'
p8
NsbsS'tail'
p9
g4
sS'size'
p10
I1
sb.(ilinked_list
LinkedList
p1
(dp2
S'head'
p3
(ilinked_list
Node
p4
(dp5
S'skip'
p6
NsS'data'
p7
I11
sS'next'
p8
NsbsS'tail'
p9
g4
sS'size'
p10
I1
sb.(ilinked_list
LinkedList
p1
(dp2
S'head'
p3
(ilinked_list
Node
p4
(dp5
S'skip'
p6
NsS'data'
p7
I11
sS'next'
p8
NsbsS'tail'
p9
g4
sS'size'
p10
I1
sb.(ilinked_list
LinkedList
p1
(dp2
S'head'
p3
(ilinked_list
Node
p4
(dp5
S'skip'
p6
NsS'data'
p7
I11
sS'next'
p8
NsbsS'tail'
p9
g4
sS'size'
p10
I1
sb.(ilinked_list
LinkedList
p1
(dp2
S'head'
p3
(ilinked_list
Node
p4
(dp5
S'skip'
p6
NsS'data'
p7
I11
sS'next'
p8
NsbsS'tail'
p9
g4
sS'size'
p10
I1
sb.(ilinked_list
LinkedList
p1
(dp2
S'head'
p3
(ilinked_list
Node
p4
(dp5
S'skip'
p6
NsS'data'
p7
I11
sS'next'
p8
NsbsS'tail'
p9
g4
sS'size'
p10
I1
sb.(ilinked_list
LinkedList
p1
(dp2
S'head'
p3
(ilinked_list
Node
p4
(dp5
S'skip'
p6
(ilinked_list
Node
p7
(dp8
g6
(ilinked_list
Node
p9
(dp10
g6
NsS'data'
p11
I14
sS'next'
p12
Nsbsg11
I13
sg12
g9
sbsg11
I11
sg12
(ilinked_list
Node
p13
(dp14
g6
Nsg11
I12
sg12
g7
sbsbsS'tail'
p15
g9
sS'size'
p16
I4
sb.(ilinked_list
LinkedList
p1
(dp2
S'head'
p3
(ilinked_list
Node
p4
(dp5
S'skip'
p6
NsS'data'
p7
I11
sS'next'
p8
NsbsS'tail'
p9
g4
sS'size'
p10
I1
sb.(ilinked_list
LinkedList
p1
(dp2
S'head'
p3
(ilinked_list
Node
p4
(dp5
S'skip'
p6
NsS'data'
p7
I11
sS'next'
p8
NsbsS'tail'
p9
g4
sS'size'
p10
I1
sb.(ilinked_list
LinkedList
p1
(dp2
S'head'
p3
(ilinked_list
Node
p4
(dp5
S'skip'
p6
(ilinked_list
Node
p7
(dp8
g6
NsS'data'
p9
I14
sS'next'
p10
Nsbsg9
I11
sg10
(ilinked_list
Node
p11
(dp12
g6
Nsg9
I13
sg10
g7
sbsbsS'tail'
p13
g7
sS'size'
p14
I3
sb.(ilinked_list
LinkedList
p1
(dp2
S'head'
p3
(ilinked_list
Node
p4
(dp5
S'skip'
p6
NsS'data'
p7
I11
sS'next'
p8
NsbsS'tail'
p9
g4
sS'size'
p10
I1
sb.(ilinked_list
LinkedList
p1
(dp2
S'head'
p3
(ilinked_list
Node
p4
(dp5
S'skip'
p6
NsS'data'
p7
I11
sS'next'
p8
(ilinked_list
Node
p9
(dp10
g6
Nsg7
I18
sg8
NsbsbsS'tail'
p11
g9
sS'size'
p12
I2
sb.(ilinked_list
LinkedList
p1
(dp2
S'head'
p3
(ilinked_list
Node
p4
(dp5
S'skip'
p6
NsS'data'
p7
I11
sS'next'
p8
NsbsS'tail'
p9
g4
sS'size'
p10
I1
sb.(ilinked_list
LinkedList
p1
(dp2
S'head'
p3
(ilinked_list
Node
p4
(dp5
S'skip'
p6
NsS'data'
p7
I11
sS'next'
p8
NsbsS'tail'
p9
g4
sS'size'
p10
I1
sb.(ilinked_list
LinkedList
p1
(dp2
S'head'
p3
(ilinked_list
Node
p4
(dp5
S'skip'
p6
NsS'data'
p7
I11
sS'next'
p8
NsbsS'tail'
p9
g4
sS'size'
p10
I1
sb.(ilinked_list
LinkedList
p1
(dp2
S'head'
p3
(ilinked_list
Node
p4
(dp5
S'skip'
p6
NsS'data'
p7
I11
sS'next'
p8
NsbsS'tail'
p9
g4
sS'size'
p10
I1
sb.(ilinked_list
LinkedList
p1
(dp2
S'head'
p3
(ilinked_list
Node
p4
(dp5
S'skip'
p6
(ilinked_list
Node
p7
(dp8
g6
NsS'data'
p9
I13
sS'next'
p10
Nsbsg9
I11
sg10
(ilinked_list
Node
p11
(dp12
g6
Nsg9
I12
sg10
g7
sbsbsS'tail'
p13
g7
sS'size'
p14
I3
sb.(ilinked_list
LinkedList
p1
(dp2
S'head'
p3
(ilinked_list
Node
p4
(dp5
S'skip'
p6
NsS'data'
p7
I12
sS'next'
p8
NsbsS'tail'
p9
g4
sS'size'
p10
I1
sb.(ilinked_list
LinkedList
p1
(dp2
S'head'
p3
(ilinked_list
Node
p4
(dp5
S'skip'
p6
NsS'data'
p7
I12
sS'next'
p8
NsbsS'tail'
p9
g4
sS'size'
p10
I1
sb.(ilinked_list
LinkedList
p1
(dp2
S'head'
p3
(ilinked_list
Node
p4
(dp5
S'skip'
p6
NsS'data'
p7
I12
sS'next'
p8
NsbsS'tail'
p9
g4
sS'size'
p10
I1
sb.(ilinked_list
LinkedList
p1
(dp2
S'head'
p3
(ilinked_list
Node
p4
(dp5
S'skip'
p6
NsS'data'
p7
I12
sS'next'
p8
NsbsS'tail'
p9
g4
sS'size'
p10
I1
sb.(ilinked_list
LinkedList
p1
(dp2
S'head'
p3
(ilinked_list
Node
p4
(dp5
S'skip'
p6
NsS'data'
p7
I12
sS'next'
p8
NsbsS'tail'
p9
g4
sS'size'
p10
I1
sb.(ilinked_list
LinkedList
p1
(dp2
S'head'
p3
(ilinked_list
Node
p4
(dp5
S'skip'
p6
NsS'data'
p7
I12
sS'next'
p8
NsbsS'tail'
p9
g4
sS'size'
p10
I1
sb.(ilinked_list
LinkedList
p1
(dp2
S'head'
p3
(ilinked_list
Node
p4
(dp5
S'skip'
p6
NsS'data'
p7
I12
sS'next'
p8
(ilinked_list
Node
p9
(dp10
g6
Nsg7
I18
sg8
NsbsbsS'tail'
p11
g9
sS'size'
p12
I2
sb.(ilinked_list
LinkedList
p1
(dp2
S'head'
p3
(ilinked_list
Node
p4
(dp5
S'skip'
p6
NsS'data'
p7
I12
sS'next'
p8
(ilinked_list
Node
p9
(dp10
g6
Nsg7
I18
sg8
NsbsbsS'tail'
p11
g9
sS'size'
p12
I2
sb.(ilinked_list
LinkedList
p1
(dp2
S'head'
p3
(ilinked_list
Node
p4
(dp5
S'skip'
p6
NsS'data'
p7
I12
sS'next'
p8
NsbsS'tail'
p9
g4
sS'size'
p10
I1
sb.(ilinked_list
LinkedList
p1
(dp2
S'head'
p3
(ilinked_list
Node
p4
(dp5
S'skip'
p6
NsS'data'
p7
I12
sS'next'
p8
NsbsS'tail'
p9
g4
sS'size'
p10
I1
sb.(ilinked_list
LinkedList
p1
(dp2
S'head'
p3
(ilinked_list
Node
p4
(dp5
S'skip'
p6
NsS'data'
p7
I12
sS'next'
p8
NsbsS'tail'
p9
g4
sS'size'
p10
I1
sb.(ilinked_list
LinkedList
p1
(dp2
S'head'
p3
(ilinked_list
Node
p4
(dp5
S'skip'
p6
NsS'data'
p7
I12
sS'next'
p8
NsbsS'tail'
p9
g4
sS'size'
p10
I1
sb.(ilinked_list
LinkedList
p1
(dp2
S'head'
p3
(ilinked_list
Node
p4
(dp5
S'skip'
p6
NsS'data'
p7
I12
sS'next'
p8
NsbsS'tail'
p9
g4
sS'size'
p10
I1
sb.(ilinked_list
LinkedList
p1
(dp2
S'head'
p3
(ilinked_list
Node
p4
(dp5
S'skip'
p6
NsS'data'
p7
I12
sS'next'
p8
(ilinked_list
Node
p9
(dp10
g6
Nsg7
I13
sg8
NsbsbsS'tail'
p11
g9
sS'size'
p12
I2
sb.(ilinked_list
LinkedList
p1
(dp2
S'head'
p3
(ilinked_list
Node
p4
(dp5
S'skip'
p6
NsS'data'
p7
I12
sS'next'
p8
NsbsS'tail'
p9
g4
sS'size'
p10
I1
sb.(ilinked_list
LinkedList
p1
(dp2
S'head'
p3
(ilinked_list
Node
p4
(dp5
S'skip'
p6
NsS'data'
p7
I12
sS'next'
p8
NsbsS'tail'
p9
g4
sS'size'
p10
I1
sb.(ilinked_list
LinkedList
p1
(dp2
S'head'
p3
(ilinked_list
Node
p4
(dp5
S'skip'
p6
NsS'data'
p7
I12
sS'next'
p8
(ilinked_list
Node
p9
(dp10
g6
Nsg7
I13
sg8
NsbsbsS'tail'
p11
g9
sS'size'
p12
I2
sb.(ilinked_list
LinkedList
p1
(dp2
S'head'
p3
(ilinked_list
Node
p4
(dp5
S'skip'
p6
NsS'data'
p7
I12
sS'next'
p8
NsbsS'tail'
p9
g4
sS'size'
p10
I1
sb.(ilinked_list
LinkedList
p1
(dp2
S'head'
p3
(ilinked_list
Node
p4
(dp5
S'skip'
p6
NsS'data'
p7
I12
sS'next'
p8
NsbsS'tail'
p9
g4
sS'size'
p10
I1
sb.(ilinked_list
LinkedList
p1
(dp2
S'head'
p3
(ilinked_list
Node
p4
(dp5
S'skip'
p6
NsS'data'
p7
I12
sS'next'
p8
(ilinked_list
Node
p9
(dp10
g6
Nsg7
I18
sg8
NsbsbsS'tail'
p11
g9
sS'size'
p12
I2
sb.(ilinked_list
LinkedList
p1
(dp2
S'head'
p3
(ilinked_list
Node
p4
(dp5
S'skip'
p6
NsS'data'
p7
I12
sS'next'
p8
NsbsS'tail'
p9
g4
sS'size'
p10
I1
sb.(ilinked_list
LinkedList
p1
(dp2
S'head'
p3
(ilinked_list
Node
p4
(dp5
S'skip'
p6
NsS'data'
p7
I12
sS'next'
p8
NsbsS'tail'
p9
g4
sS'size'
p10
I1
sb.(ilinked_list
LinkedList
p1
(dp2
S'head'
p3
(ilinked_list
Node
p4
(dp5
S'skip'
p6
NsS'data'
p7
I12
sS'next'
p8
NsbsS'tail'
p9
g4
sS'size'
p10
I1
sb.(ilinked_list
LinkedList
p1
(dp2
S'head'
p3
(ilinked_list
Node
p4
(dp5
S'skip'
p6
NsS'data'
p7
I12
sS'next'
p8
NsbsS'tail'
p9
g4
sS'size'
p10
I1
sb.(ilinked_list
LinkedList
p1
(dp2
S'head'
p3
(ilinked_list
Node
p4
(dp5
S'skip'
p6
NsS'data'
p7
I12
sS'next'
p8
(ilinked_list
Node
p9
(dp10
g6
Nsg7
I18
sg8
NsbsbsS'tail'
p11
g9
sS'size'
p12
I2
sb.(ilinked_list
LinkedList
p1
(dp2
S'head'
p3
(ilinked_list
Node
p4
(dp5
S'skip'
p6
NsS'data'
p7
I12
sS'next'
p8
NsbsS'tail'
p9
g4
sS'size'
p10
I1
sb.(ilinked_list
LinkedList
p1
(dp2
S'head'
p3
(ilinked_list
Node
p4
(dp5
S'skip'
p6
NsS'data'
p7
I12
sS'next'
p8
NsbsS'tail'
p9
g4
sS'size'
p10
I1
sb.(ilinked_list
LinkedList
p1
(dp2
S'head'
p3
(ilinked_list
Node
p4
(dp5
S'skip'
p6
NsS'data'
p7
I12
sS'next'
p8
NsbsS'tail'
p9
g4
sS'size'
p10
I1
sb.(ilinked_list
LinkedList
p1
(dp2
S'head'
p3
(ilinked_list
Node
p4
(dp5
S'skip'
p6
NsS'data'
p7
I12
sS'next'
p8
NsbsS'tail'
p9
g4
sS'size'
p10
I1
sb.(ilinked_list
LinkedList
p1
(dp2
S'head'
p3
(ilinked_list
Node
p4
(dp5
S'skip'
p6
NsS'data'
p7
I12
sS'next'
p8
NsbsS'tail'
p9
g4
sS'size'
p10
I1
sb.(ilinked_list
LinkedList
p1
(dp2
S'head'
p3
(ilinked_list
Node
p4
(dp5
S'skip'
p6
NsS'data'
p7
I12
sS'next'
p8
NsbsS'tail'
p9
g4
sS'size'
p10
I1
sb.(ilinked_list
LinkedList
p1
(dp2
S'head'
p3
(ilinked_list
Node
p4
(dp5
S'skip'
p6
NsS'data'
p7
I12
sS'next'
p8
NsbsS'tail'
p9
g4
sS'size'
p10
I1
sb.(ilinked_list
LinkedList
p1
(dp2
S'head'
p3
(ilinked_list
Node
p4
(dp5
S'skip'
p6
NsS'data'
p7
I12
sS'next'
p8
(ilinked_list
Node
p9
(dp10
g6
Nsg7
I13
sg8
NsbsbsS'tail'
p11
g9
sS'size'
p12
I2
sb.(ilinked_list
LinkedList
p1
(dp2
S'head'
p3
(ilinked_list
Node
p4
(dp5
S'skip'
p6
NsS'data'
p7
I12
sS'next'
p8
(ilinked_list
Node
p9
(dp10
g6
Nsg7
I18
sg8
NsbsbsS'tail'
p11
g9
sS'size'
p12
I2
sb.(ilinked_list
LinkedList
p1
(dp2
S'head'
p3
(ilinked_list
Node
p4
(dp5
S'skip'
p6
NsS'data'
p7
I12
sS'next'
p8
NsbsS'tail'
p9
g4
sS'size'
p10
I1
sb.(ilinked_list
LinkedList
p1
(dp2
S'head'
p3
(ilinked_list
Node
p4
(dp5
S'skip'
p6
NsS'data'
p7
I12
sS'next'
p8
(ilinked_list
Node
p9
(dp10
g6
Nsg7
I18
sg8
NsbsbsS'tail'
p11
g9
sS'size'
p12
I2
sb.(ilinked_list
LinkedList
p1
(dp2
S'head'
p3
(ilinked_list
Node
p4
(dp5
S'skip'
p6
NsS'data'
p7
I12
sS'next'
p8
NsbsS'tail'
p9
g4
sS'size'
p10
I1
sb.(ilinked_list
LinkedList
p1
(dp2
S'head'
p3
(ilinked_list
Node
p4
(dp5
S'skip'
p6
NsS'data'
p7
I12
sS'next'
p8
NsbsS'tail'
p9
g4
sS'size'
p10
I1
sb.(ilinked_list
LinkedList
p1
(dp2
S'head'
p3
(ilinked_list
Node
p4
(dp5
S'skip'
p6
NsS'data'
p7
I12
sS'next'
p8
NsbsS'tail'
p9
g4
sS'size'
p10
I1
sb.(ilinked_list
LinkedList
p1
(dp2
S'head'
p3
(ilinked_list
Node
p4
(dp5
S'skip'
p6
NsS'data'
p7
I13
sS'next'
p8
NsbsS'tail'
p9
g4
sS'size'
p10
I1
sb.(ilinked_list
LinkedList
p1
(dp2
S'head'
p3
(ilinked_list
Node
p4
(dp5
S'skip'
p6
NsS'data'
p7
I13
sS'next'
p8
NsbsS'tail'
p9
g4
sS'size'
p10
I1
sb.(ilinked_list
LinkedList
p1
(dp2
S'head'
p3
(ilinked_list
Node
p4
(dp5
S'skip'
p6
NsS'data'
p7
I13
sS'next'
p8
NsbsS'tail'
p9
g4
sS'size'
p10
I1
sb.(ilinked_list
LinkedList
p1
(dp2
S'head'
p3
(ilinked_list
Node
p4
(dp5
S'skip'
p6
NsS'data'
p7
I13
sS'next'
p8
NsbsS'tail'
p9
g4
sS'size'
p10
I1
sb.(ilinked_list
LinkedList
p1
(dp2
S'head'
p3
(ilinked_list
Node
p4
(dp5
S'skip'
p6
NsS'data'
p7
I13
sS'next'
p8
NsbsS'tail'
p9
g4
sS'size'
p10
I1
sb.(ilinked_list
LinkedList
p1
(dp2
S'head'
p3
(ilinked_list
Node
p4
(dp5
S'skip'
p6
NsS'data'
p7
I13
sS'next'
p8
NsbsS'tail'
p9
g4
sS'size'
p10
I1
sb.(ilinked_list
LinkedList
p1
(dp2
S'head'
p3
(ilinked_list
Node
p4
(dp5
S'skip'
p6
NsS'data'
p7
I13
sS'next'
p8
NsbsS'tail'
p9
g4
sS'size'
p10
I1
sb.(ilinked_list
LinkedList
p1
(dp2
S'head'
p3
(ilinked_list
Node
p4
(dp5
S'skip'
p6
NsS'data'
p7
I13
sS'next'
p8
NsbsS'tail'
p9
g4
sS'size'
p10
I1
sb.(ilinked_list
LinkedList
p1
(dp2
S'head'
p3
(ilinked_list
Node
p4
(dp5
S'skip'
p6
NsS'data'
p7
I13
sS'next'
p8
NsbsS'tail'
p9
g4
sS'size'
p10
I1
sb.(ilinked_list
LinkedList
p1
(dp2
S'head'
p3
(ilinked_list
Node
p4
(dp5
S'skip'
p6
NsS'data'
p7
I13
sS'next'
p8
NsbsS'tail'
p9
g4
sS'size'
p10
I1
sb.(ilinked_list
LinkedList
p1
(dp2
S'head'
p3
(ilinked_list
Node
p4
(dp5
S'skip'
p6
NsS'data'
p7
I13
sS'next'
p8
NsbsS'tail'
p9
g4
sS'size'
p10
I1
sb.(ilinked_list
LinkedList
p1
(dp2
S'head'
p3
(ilinked_list
Node
p4
(dp5
S'skip'
p6
NsS'data'
p7
I13
sS'next'
p8
(ilinked_list
Node
p9
(dp10
g6
Nsg7
I14
sg8
NsbsbsS'tail'
p11
g9
sS'size'
p12
I2
sb.(ilinked_list
LinkedList
p1
(dp2
S'head'
p3
(ilinked_list
Node
p4
(dp5
S'skip'
p6
NsS'data'
p7
I13
sS'next'
p8
NsbsS'tail'
p9
g4
sS'size'
p10
I1
sb.(ilinked_list
LinkedList
p1
(dp2
S'head'
p3
(ilinked_list
Node
p4
(dp5
S'skip'
p6
NsS'data'
p7
I13
sS'next'
p8
NsbsS'tail'
p9
g4
sS'size'
p10
I1
sb.(ilinked_list
LinkedList
p1
(dp2
S'head'
p3
(ilinked_list
Node
p4
(dp5
S'skip'
p6
NsS'data'
p7
I13
sS'next'
p8
NsbsS'tail'
p9
g4
sS'size'
p10
I1
sb.(ilinked_list
LinkedList
p1
(dp2
S'head'
p3
(ilinked_list
Node
p4
(dp5
S'skip'
p6
NsS'data'
p7
I13
sS'next'
p8
NsbsS'tail'
p9
g4
sS'size'
p10
I1
sb.(ilinked_list
LinkedList
p1
(dp2
S'head'
p3
(ilinked_list
Node
p4
(dp5
S'skip'
p6
NsS'data'
p7
I13
sS'next'
p8
NsbsS'tail'
p9
g4
sS'size'
p10
I1
sb.(ilinked_list
LinkedList
p1
(dp2
S'head'
p3
(ilinked_list
Node
p4
(dp5
S'skip'
p6
NsS'data'
p7
I13
sS'next'
p8
NsbsS'tail'
p9
g4
sS'size'
p10
I1
sb.(ilinked_list
LinkedList
p1
(dp2
S'head'
p3
(ilinked_list
Node
p4
(dp5
S'skip'
p6
NsS'data'
p7
I13
sS'next'
p8
NsbsS'tail'
p9
g4
sS'size'
p10
I1
sb.(ilinked_list
LinkedList
p1
(dp2
S'head'
p3
(ilinked_list
Node
p4
(dp5
S'skip'
p6
NsS'data'
p7
I13
sS'next'
p8
NsbsS'tail'
p9
g4
sS'size'
p10
I1
sb.(ilinked_list
LinkedList
p1
(dp2
S'head'
p3
(ilinked_list
Node
p4
(dp5
S'skip'
p6
NsS'data'
p7
I13
sS'next'
p8
NsbsS'tail'
p9
g4
sS'size'
p10
I1
sb.(ilinked_list
LinkedList
p1
(dp2
S'head'
p3
(ilinked_list
Node
p4
(dp5
S'skip'
p6
NsS'data'
p7
I13
sS'next'
p8
NsbsS'tail'
p9
g4
sS'size'
p10
I1
sb.(ilinked_list
LinkedList
p1
(dp2
S'head'
p3
(ilinked_list
Node
p4
(dp5
S'skip'
p6
NsS'data'
p7
I13
sS'next'
p8
NsbsS'tail'
p9
g4
sS'size'
p10
I1
sb.(ilinked_list
LinkedList
p1
(dp2
S'head'
p3
(ilinked_list
Node
p4
(dp5
S'skip'
p6
NsS'data'
p7
I13
sS'next'
p8
NsbsS'tail'
p9
g4
sS'size'
p10
I1
sb.(ilinked_list
LinkedList
p1
(dp2
S'head'
p3
(ilinked_list
Node
p4
(dp5
S'skip'
p6
NsS'data'
p7
I13
sS'next'
p8
NsbsS'tail'
p9
g4
sS'size'
p10
I1
sb.(ilinked_list
LinkedList
p1
(dp2
S'head'
p3
(ilinked_list
Node
p4
(dp5
S'skip'
p6
NsS'data'
p7
I13
sS'next'
p8
NsbsS'tail'
p9
g4
sS'size'
p10
I1
sb.(ilinked_list
LinkedList
p1
(dp2
S'head'
p3
(ilinked_list
Node
p4
(dp5
S'skip'
p6
NsS'data'
p7
I13
sS'next'
p8
NsbsS'tail'
p9
g4
sS'size'
p10
I1
sb.(ilinked_list
LinkedList
p1
(dp2
S'head'
p3
(ilinked_list
Node
p4
(dp5
S'skip'
p6
NsS'data'
p7
I13
sS'next'
p8
NsbsS'tail'
p9
g4
sS'size'
p10
I1
sb.(ilinked_list
LinkedList
p1
(dp2
S'head'
p3
(ilinked_list
Node
p4
(dp5
S'skip'
p6
NsS'data'
p7
I13
sS'next'
p8
NsbsS'tail'
p9
g4
sS'size'
p10
I1
sb.(ilinked_list
LinkedList
p1
(dp2
S'head'
p3
(ilinked_list
Node
p4
(dp5
S'skip'
p6
NsS'data'
p7
I13
sS'next'
p8
NsbsS'tail'
p9
g4
sS'size'
p10
I1
sb.(ilinked_list
LinkedList
p1
(dp2
S'head'
p3
(ilinked_list
Node
p4
(dp5
S'skip'
p6
NsS'data'
p7
I13
sS'next'
p8
NsbsS'tail'
p9
g4
sS'size'
p10
I1
sb.(ilinked_list
LinkedList
p1
(dp2
S'head'
p3
(ilinked_list
Node
p4
(dp5
S'skip'
p6
NsS'data'
p7
I13
sS'next'
p8
NsbsS'tail'
p9
g4
sS'size'
p10
I1
sb.(ilinked_list
LinkedList
p1
(dp2
S'head'
p3
(ilinked_list
Node
p4
(dp5
S'skip'
p6
NsS'data'
p7
I13
sS'next'
p8
(ilinked_list
Node
p9
(dp10
g6
Nsg7
I14
sg8
NsbsbsS'tail'
p11
g9
sS'size'
p12
I2
sb.(ilinked_list
LinkedList
p1
(dp2
S'head'
p3
(ilinked_list
Node
p4
(dp5
S'skip'
p6
NsS'data'
p7
I13
sS'next'
p8
(ilinked_list
Node
p9
(dp10
g6
Nsg7
I14
sg8
NsbsbsS'tail'
p11
g9
sS'size'
p12
I2
sb.(ilinked_list
LinkedList
p1
(dp2
S'head'
p3
(ilinked_list
Node
p4
(dp5
S'skip'
p6
NsS'data'
p7
I13
sS'next'
p8
NsbsS'tail'
p9
g4
sS'size'
p10
I1
sb.(ilinked_list
LinkedList
p1
(dp2
S'head'
p3
(ilinked_list
Node
p4
(dp5
S'skip'
p6
NsS'data'
p7
I13
sS'next'
p8
(ilinked_list
Node
p9
(dp10
g6
Nsg7
I18
sg8
NsbsbsS'tail'
p11
g9
sS'size'
p12
I2
sb.(ilinked_list
LinkedList
p1
(dp2
S'head'
p3
(ilinked_list
Node
p4
(dp5
S'skip'
p6
NsS'data'
p7
I14
sS'next'
p8
NsbsS'tail'
p9
g4
sS'size'
p10
I1
sb.(ilinked_list
LinkedList
p1
(dp2
S'head'
p3
(ilinked_list
Node
p4
(dp5
S'skip'
p6
NsS'data'
p7
I14
sS'next'
p8
NsbsS'tail'
p9
g4
sS'size'
p10
I1
sb.(ilinked_list
LinkedList
p1
(dp2
S'head'
p3
(ilinked_list
Node
p4
(dp5
S'skip'
p6
NsS'data'
p7
I14
sS'next'
p8
NsbsS'tail'
p9
g4
sS'size'
p10
I1
sb.(ilinked_list
LinkedList
p1
(dp2
S'head'
p3
(ilinked_list
Node
p4
(dp5
S'skip'
p6
NsS'data'
p7
I14
sS'next'
p8
NsbsS'tail'
p9
g4
sS'size'
p10
I1
sb.(ilinked_list
LinkedList
p1
(dp2
S'head'
p3
(ilinked_list
Node
p4
(dp5
S'skip'
p6
NsS'data'
p7
I14
sS'next'
p8
NsbsS'tail'
p9
g4
sS'size'
p10
I1
sb.(ilinked_list
LinkedList
p1
(dp2
S'head'
p3
(ilinked_list
Node
p4
(dp5
S'skip'
p6
NsS'data'
p7
I14
sS'next'
p8
NsbsS'tail'
p9
g4
sS'size'
p10
I1
sb.(ilinked_list
LinkedList
p1
(dp2
S'head'
p3
(ilinked_list
Node
p4
(dp5
S'skip'
p6
NsS'data'
p7
I14
sS'next'
p8
NsbsS'tail'
p9
g4
sS'size'
p10
I1
sb.(ilinked_list
LinkedList
p1
(dp2
S'head'
p3
(ilinked_list
Node
p4
(dp5
S'skip'
p6
NsS'data'
p7
I14
sS'next'
p8
NsbsS'tail'
p9
g4
sS'size'
p10
I1
sb.(ilinked_list
LinkedList
p1
(dp2
S'head'
p3
(ilinked_list
Node
p4
(dp5
S'skip'
p6
NsS'data'
p7
I14
sS'next'
p8
NsbsS'tail'
p9
g4
sS'size'
p10
I1
sb.(ilinked_list
LinkedList
p1
(dp2
S'head'
p3
(ilinked_list
Node
p4
(dp5
S'skip'
p6
NsS'data'
p7
I14
sS'next'
p8
(ilinked_list
Node
p9
(dp10
g6
Nsg7
I18
sg8
NsbsbsS'tail'
p11
g9
sS'size'
p12
I2
sb.(ilinked_list
LinkedList
p1
(dp2
S'head'
p3
(ilinked_list
Node
p4
(dp5
S'skip'
p6
NsS'data'
p7
I14
sS'next'
p8
NsbsS'tail'
p9
g4
sS'size'
p10
I1
sb.(ilinked_list
LinkedList
p1
(dp2
S'head'
p3
(ilinked_list
Node
p4
(dp5
S'skip'
p6
NsS'data'
p7
I14
sS'next'
p8
NsbsS'tail'
p9
g4
sS'size'
p10
I1
sb.(ilinked_list
LinkedList
p1
(dp2
S'head'
p3
(ilinked_list
Node
p4
(dp5
S'skip'
p6
NsS'data'
p7
I14
sS'next'
p8
NsbsS'tail'
p9
g4
sS'size'
p10
I1
sb.(ilinked_list
LinkedList
p1
(dp2
S'head'
p3
(ilinked_list
Node
p4
(dp5
S'skip'
p6
NsS'data'
p7
I14
sS'next'
p8
NsbsS'tail'
p9
g4
sS'size'
p10
I1
sb.(ilinked_list
LinkedList
p1
(dp2
S'head'
p3
(ilinked_list
Node
p4
(dp5
S'skip'
p6
NsS'data'
p7
I18
sS'next'
p8
NsbsS'tail'
p9
g4
sS'size'
p10
I1
sb.(ilinked_list
LinkedList
p1
(dp2
S'head'
p3
(ilinked_list
Node
p4
(dp5
S'skip'
p6
NsS'data'
p7
I18
sS'next'
p8
NsbsS'tail'
p9
g4
sS'size'
p10
I1
sb.(ilinked_list
LinkedList
p1
(dp2
S'head'
p3
(ilinked_list
Node
p4
(dp5
S'skip'
p6
NsS'data'
p7
I18
sS'next'
p8
NsbsS'tail'
p9
g4
sS'size'
p10
I1
sb.(ilinked_list
LinkedList
p1
(dp2
S'head'
p3
(ilinked_list
Node
p4
(dp5
S'skip'
p6
NsS'data'
p7
I18
sS'next'
p8
NsbsS'tail'
p9
g4
sS'size'
p10
I1
sb.(ilinked_list
LinkedList
p1
(dp2
S'head'
p3
(ilinked_list
Node
p4
(dp5
S'skip'
p6
NsS'data'
p7
I18
sS'next'
p8
NsbsS'tail'
p9
g4
sS'size'
p10
I1
sb.(ilinked_list
LinkedList
p1
(dp2
S'head'
p3
(ilinked_list
Node
p4
(dp5
S'skip'
p6
NsS'data'
p7
I18
sS'next'
p8
NsbsS'tail'
p9
g4
sS'size'
p10
I1
sb.(ilinked_list
LinkedList
p1
(dp2
S'head'
p3
(ilinked_list
Node
p4
(dp5
S'skip'
p6
NsS'data'
p7
I18
sS'next'
p8
NsbsS'tail'
p9
g4
sS'size'
p10
I1
sb.(ilinked_list
LinkedList
p1
(dp2
S'head'
p3
(ilinked_list
Node
p4
(dp5
S'skip'
p6
NsS'data'
p7
I18
sS'next'
p8
NsbsS'tail'
p9
g4
sS'size'
p10
I1
sb.(ilinked_list
LinkedList
p1
(dp2
S'head'
p3
(ilinked_list
Node
p4
(dp5
S'skip'
p6
NsS'data'
p7
I18
sS'next'
p8
NsbsS'tail'
p9
g4
sS'size'
p10
I1
sb.(ilinked_list
LinkedList
p1
(dp2
S'head'
p3
(ilinked_list
Node
p4
(dp5
S'skip'
p6
NsS'data'
p7
I18
sS'next'
p8
NsbsS'tail'
p9
g4
sS'size'
p10
I1
sb.(ilinked_list
LinkedList
p1
(dp2
S'head'
p3
(ilinked_list
Node
p4
(dp5
S'skip'
p6
NsS'data'
p7
I18
sS'next'
p8
NsbsS'tail'
p9
g4
sS'size'
p10
I1
sb.(ilinked_list
LinkedList
p1
(dp2
S'head'
p3
(ilinked_list
Node
p4
(dp5
S'skip'
p6
NsS'data'
p7
I18
sS'next'
p8
NsbsS'tail'
p9
g4
sS'size'
p10
I1
sb.(ilinked_list
LinkedList
p1
(dp2
S'head'
p3
(ilinked_list
Node
p4
(dp5
S'skip'
p6
NsS'data'
p7
I18
sS'next'
p8
NsbsS'tail'
p9
g4
sS'size'
p10
I1
sb.(ilinked_list
LinkedList
p1
(dp2
S'head'
p3
(ilinked_list
Node
p4
(dp5
S'skip'
p6
NsS'data'
p7
I18
sS'next'
p8
NsbsS'tail'
p9
g4
sS'size'
p10
I1
sb.(ilinked_list
LinkedList
p1
(dp2
S'head'
p3
(ilinked_list
Node
p4
(dp5
S'skip'
p6
NsS'data'
p7
I18
sS'next'
p8
NsbsS'tail'
p9
g4
sS'size'
p10
I1
sb.(ilinked_list
LinkedList
p1
(dp2
S'head'
p3
(ilinked_list
Node
p4
(dp5
S'skip'
p6
NsS'data'
p7
I18
sS'next'
p8
NsbsS'tail'
p9
g4
sS'size'
p10
I1
sb.(ilinked_list
LinkedList
p1
(dp2
S'head'
p3
(ilinked_list
Node
p4
(dp5
S'skip'
p6
NsS'data'
p7
I18
sS'next'
p8
NsbsS'tail'
p9
g4
sS'size'
p10
I1
sb.(ilinked_list
LinkedList
p1
(dp2
S'head'
p3
(ilinked_list
Node
p4
(dp5
S'skip'
p6
NsS'data'
p7
I18
sS'next'
p8
NsbsS'tail'
p9
g4
sS'size'
p10
I1
sb.(ilinked_list
LinkedList
p1
(dp2
S'head'
p3
(ilinked_list
Node
p4
(dp5
S'skip'
p6
NsS'data'
p7
I18
sS'next'
p8
NsbsS'tail'
p9
g4
sS'size'
p10
I1
sb.(ilinked_list
LinkedList
p1
(dp2
S'head'
p3
(ilinked_list
Node
p4
(dp5
S'skip'
p6
NsS'data'
p7
I18
sS'next'
p8
NsbsS'tail'
p9
g4
sS'size'
p10
I1
sb.(ilinked_list
LinkedList
p1
(dp2
S'head'
p3
(ilinked_list
Node
p4
(dp5
S'skip'
p6
NsS'data'
p7
I18
sS'next'
p8
NsbsS'tail'
p9
g4
sS'size'
p10
I1
sb.(ilinked_list
LinkedList
p1
(dp2
S'head'
p3
(ilinked_list
Node
p4
(dp5
S'skip'
p6
NsS'data'
p7
I18
sS'next'
p8
NsbsS'tail'
p9
g4
sS'size'
p10
I1
sb.(ilinked_list
LinkedList
p1
(dp2
S'head'
p3
(ilinked_list
Node
p4
(dp5
S'skip'
p6
NsS'data'
p7
I18
sS'next'
p8
NsbsS'tail'
p9
g4
sS'size'
p10
I1
sb.(ilinked_list
LinkedList
p1
(dp2
S'head'
p3
(ilinked_list
Node
p4
(dp5
S'skip'
p6
NsS'data'
p7
I18
sS'next'
p8
NsbsS'tail'
p9
g4
sS'size'
p10
I1
sb.(ilinked_list
LinkedList
p1
(dp2
S'head'
p3
(ilinked_list
Node
p4
(dp5
S'skip'
p6
NsS'data'
p7
I18
sS'next'
p8
NsbsS'tail'
p9
g4
sS'size'
p10
I1
sb.(ilinked_list
LinkedList
p1
(dp2
S'head'
p3
(ilinked_list
Node
p4
(dp5
S'skip'
p6
NsS'data'
p7
I18
sS'next'
p8
NsbsS'tail'
p9
g4
sS'size'
p10
I1
sb.(ilinked_list
LinkedList
p1
(dp2
S'head'
p3
(ilinked_list
Node
p4
(dp5
S'skip'
p6
NsS'data'
p7
I18
sS'next'
p8
NsbsS'tail'
p9
g4
sS'size'
p10
I1
sb.(ilinked_list
LinkedList
p1
(dp2
S'head'
p3
(ilinked_list
Node
p4
(dp5
S'skip'
p6
NsS'data'
p7
I18
sS'next'
p8
NsbsS'tail'
p9
g4
sS'size'
p10
I1
sb.(ilinked_list
LinkedList
p1
(dp2
S'head'
p3
(ilinked_list
Node
p4
(dp5
S'skip'
p6
NsS'data'
p7
I18
sS'next'
p8
NsbsS'tail'
p9
g4
sS'size'
p10
I1
sb.(ilinked_list
LinkedList
p1
(dp2
S'head'
p3
(ilinked_list
Node
p4
(dp5
S'skip'
p6
NsS'data'
p7
I18
sS'next'
p8
NsbsS'tail'
p9
g4
sS'size'
p10
I1
sb.(ilinked_list
LinkedList
p1
(dp2
S'head'
p3
(ilinked_list
Node
p4
(dp5
S'skip'
p6
NsS'data'
p7
I18
sS'next'
p8
NsbsS'tail'
p9
g4
sS'size'
p10
I1
sb.(ilinked_list
LinkedList
p1
(dp2
S'head'
p3
(ilinked_list
Node
p4
(dp5
S'skip'
p6
NsS'data'
p7
I18
sS'next'
p8
NsbsS'tail'
p9
g4
sS'size'
p10
I1
sb.(ilinked_list
LinkedList
p1
(dp2
S'head'
p3
(ilinked_list
Node
p4
(dp5
S'skip'
p6
NsS'data'
p7
I18
sS'next'
p8
NsbsS'tail'
p9
g4
sS'size'
p10
I1
sb.(ilinked_list
LinkedList
p1
(dp2
S'head'
p3
(ilinked_list
Node
p4
(dp5
S'skip'
p6
NsS'data'
p7
I18
sS'next'
p8
NsbsS'tail'
p9
g4
sS'size'
p10
I1
sb.(ilinked_list
LinkedList
p1
(dp2
S'head'
p3
(ilinked_list
Node
p4
(dp5
S'skip'
p6
NsS'data'
p7
I18
sS'next'
p8
NsbsS'tail'
p9
g4
sS'size'
p10
I1
sb.(ilinked_list
LinkedList
p1
(dp2
S'head'
p3
(ilinked_list
Node
p4
(dp5
S'skip'
p6
NsS'data'
p7
I18
sS'next'
p8
NsbsS'tail'
p9
g4
sS'size'
p10
I1
sb.(ilinked_list
LinkedList
p1
(dp2
S'head'
p3
(ilinked_list
Node
p4
(dp5
S'skip'
p6
NsS'data'
p7
I18
sS'next'
p8
NsbsS'tail'
p9
g4
sS'size'
p10
I1
sb.(ilinked_list
LinkedList
p1
(dp2
S'head'
p3
(ilinked_list
Node
p4
(dp5
S'skip'
p6
NsS'data'
p7
I18
sS'next'
p8
NsbsS'tail'
p9
g4
sS'size'
p10
I1
sb.(ilinked_list
LinkedList
p1
(dp2
S'head'
p3
(ilinked_list
Node
p4
(dp5
S'skip'
p6
NsS'data'
p7
I18
sS'next'
p8
NsbsS'tail'
p9
g4
sS'size'
p10
I1
sb.(ilinked_list
LinkedList
p1
(dp2
S'head'
p3
(ilinked_list
Node
p4
(dp5
S'skip'
p6
NsS'data'
p7
I18
sS'next'
p8
NsbsS'tail'
p9
g4
sS'size'
p10
I1
sb.(ilinked_list
LinkedList
p1
(dp2
S'head'
p3
(ilinked_list
Node
p4
(dp5
S'skip'
p6
NsS'data'
p7
I18
sS'next'
p8
NsbsS'tail'
p9
g4
sS'size'
p10
I1
sb.(ilinked_list
LinkedList
p1
(dp2
S'head'
p3
(ilinked_list
Node
p4
(dp5
S'skip'
p6
NsS'data'
p7
I18
sS'next'
p8
NsbsS'tail'
p9
g4
sS'size'
p10
I1
sb.(ilinked_list
LinkedList
p1
(dp2
S'head'
p3
(ilinked_list
Node
p4
(dp5
S'skip'
p6
NsS'data'
p7
I18
sS'next'
p8
NsbsS'tail'
p9
g4
sS'size'
p10
I1
sb.(ilinked_list
LinkedList
p1
(dp2
S'head'
p3
(ilinked_list
Node
p4
(dp5
S'skip'
p6
NsS'data'
p7
I18
sS'next'
p8
NsbsS'tail'
p9
g4
sS'size'
p10
I1
sb.(ilinked_list
LinkedList
p1
(dp2
S'head'
p3
(ilinked_list
Node
p4
(dp5
S'skip'
p6
NsS'data'
p7
I18
sS'next'
p8
NsbsS'tail'
p9
g4
sS'size'
p10
I1
sb.(ilinked_list
LinkedList
p1
(dp2
S'head'
p3
(ilinked_list
Node
p4
(dp5
S'skip'
p6
NsS'data'
p7
I18
sS'next'
p8
NsbsS'tail'
p9
g4
sS'size'
p10
I1
sb.(ilinked_list
LinkedList
p1
(dp2
S'head'
p3
(ilinked_list
Node
p4
(dp5
S'skip'
p6
NsS'data'
p7
I18
sS'next'
p8
NsbsS'tail'
p9
g4
sS'size'
p10
I1
sb.(ilinked_list
LinkedList
p1
(dp2
S'head'
p3
(ilinked_list
Node
p4
(dp5
S'skip'
p6
NsS'data'
p7
I18
sS'next'
p8
NsbsS'tail'
p9
g4
sS'size'
p10
I1
sb.(ilinked_list
LinkedList
p1
(dp2
S'head'
p3
(ilinked_list
Node
p4
(dp5
S'skip'
p6
NsS'data'
p7
I18
sS'next'
p8
NsbsS'tail'
p9
g4
sS'size'
p10
I1
sb.(ilinked_list
LinkedList
p1
(dp2
S'head'
p3
(ilinked_list
Node
p4
(dp5
S'skip'
p6
NsS'data'
p7
I18
sS'next'
p8
NsbsS'tail'
p9
g4
sS'size'
p10
I1
sb.(ilinked_list
LinkedList
p1
(dp2
S'head'
p3
(ilinked_list
Node
p4
(dp5
S'skip'
p6
NsS'data'
p7
I18
sS'next'
p8
NsbsS'tail'
p9
g4
sS'size'
p10
I1
sb.(ilinked_list
LinkedList
p1
(dp2
S'head'
p3
(ilinked_list
Node
p4
(dp5
S'skip'
p6
NsS'data'
p7
I18
sS'next'
p8
NsbsS'tail'
p9
g4
sS'size'
p10
I1
sb.(ilinked_list
LinkedList
p1
(dp2
S'head'
p3
(ilinked_list
Node
p4
(dp5
S'skip'
p6
NsS'data'
p7
I18
sS'next'
p8
NsbsS'tail'
p9
g4
sS'size'
p10
I1
sb.(ilinked_list
LinkedList
p1
(dp2
S'head'
p3
(ilinked_list
Node
p4
(dp5
S'skip'
p6
NsS'data'
p7
I18
sS'next'
p8
NsbsS'tail'
p9
g4
sS'size'
p10
I1
sb.(ilinked_list
LinkedList
p1
(dp2
S'head'
p3
(ilinked_list
Node
p4
(dp5
S'skip'
p6
NsS'data'
p7
I18
sS'next'
p8
NsbsS'tail'
p9
g4
sS'size'
p10
I1
sb.(ilinked_list
LinkedList
p1
(dp2
S'head'
p3
(ilinked_list
Node
p4
(dp5
S'skip'
p6
NsS'data'
p7
I18
sS'next'
p8
NsbsS'tail'
p9
g4
sS'size'
p10
I1
sb.(ilinked_list
LinkedList
p1
(dp2
S'head'
p3
(ilinked_list
Node
p4
(dp5
S'skip'
p6
NsS'data'
p7
I18
sS'next'
p8
NsbsS'tail'
p9
g4
sS'size'
p10
I1
sb.(ilinked_list
LinkedList
p1
(dp2
S'head'
p3
(ilinked_list
Node
p4
(dp5
S'skip'
p6
NsS'data'
p7
I18
sS'next'
p8
NsbsS'tail'
p9
g4
sS'size'
p10
I1
sb.(ilinked_list
LinkedList
p1
(dp2
S'head'
p3
(ilinked_list
Node
p4
(dp5
S'skip'
p6
NsS'data'
p7
I18
sS'next'
p8
NsbsS'tail'
p9
g4
sS'size'
p10
I1
sb.(ilinked_list
LinkedList
p1
(dp2
S'head'
p3
(ilinked_list
Node
p4
(dp5
S'skip'
p6
NsS'data'
p7
I18
sS'next'
p8
NsbsS'tail'
p9
g4
sS'size'
p10
I1
sb.(ilinked_list
LinkedList
p1
(dp2
S'head'
p3
(ilinked_list
Node
p4
(dp5
S'skip'
p6
NsS'data'
p7
I18
sS'next'
p8
NsbsS'tail'
p9
g4
sS'size'
p10
I1
sb.(ilinked_list
LinkedList
p1
(dp2
S'head'
p3
(ilinked_list
Node
p4
(dp5
S'skip'
p6
NsS'data'
p7
I18
sS'next'
p8
NsbsS'tail'
p9
g4
sS'size'
p10
I1
sb.(ilinked_list
LinkedList
p1
(dp2
S'head'
p3
(ilinked_list
Node
p4
(dp5
S'skip'
p6
NsS'data'
p7
I18
sS'next'
p8
NsbsS'tail'
p9
g4
sS'size'
p10
I1
sb.(ilinked_list
LinkedList
p1
(dp2
S'head'
p3
(ilinked_list
Node
p4
(dp5
S'skip'
p6
NsS'data'
p7
I18
sS'next'
p8
NsbsS'tail'
p9
g4
sS'size'
p10
I1
sb.(ilinked_list
LinkedList
p1
(dp2
S'head'
p3
(ilinked_list
Node
p4
(dp5
S'skip'
p6
NsS'data'
p7
I18
sS'next'
p8
NsbsS'tail'
p9
g4
sS'size'
p10
I1
sb.(ilinked_list
LinkedList
p1
(dp2
S'head'
p3
(ilinked_list
Node
p4
(dp5
S'skip'
p6
NsS'data'
p7
I18
sS'next'
p8
NsbsS'tail'
p9
g4
sS'size'
p10
I1
sb.(ilinked_list
LinkedList
p1
(dp2
S'head'
p3
(ilinked_list
Node
p4
(dp5
S'skip'
p6
NsS'data'
p7
I18
sS'next'
p8
NsbsS'tail'
p9
g4
sS'size'
p10
I1
sb.(ilinked_list
LinkedList
p1
(dp2
S'head'
p3
(ilinked_list
Node
p4
(dp5
S'skip'
p6
NsS'data'
p7
I18
sS'next'
p8
NsbsS'tail'
p9
g4
sS'size'
p10
I1
sb.(ilinked_list
LinkedList
p1
(dp2
S'head'
p3
(ilinked_list
Node
p4
(dp5
S'skip'
p6
NsS'data'
p7
I18
sS'next'
p8
NsbsS'tail'
p9
g4
sS'size'
p10
I1
sb.(ilinked_list
LinkedList
p1
(dp2
S'head'
p3
(ilinked_list
Node
p4
(dp5
S'skip'
p6
NsS'data'
p7
I18
sS'next'
p8
NsbsS'tail'
p9
g4
sS'size'
p10
I1
sb.(ilinked_list
LinkedList
p1
(dp2
S'head'
p3
(ilinked_list
Node
p4
(dp5
S'skip'
p6
NsS'data'
p7
I18
sS'next'
p8
NsbsS'tail'
p9
g4
sS'size'
p10
I1
sb.(ilinked_list
LinkedList
p1
(dp2
S'head'
p3
(ilinked_list
Node
p4
(dp5
S'skip'
p6
NsS'data'
p7
I18
sS'next'
p8
NsbsS'tail'
p9
g4
sS'size'
p10
I1
sb.(ilinked_list
LinkedList
p1
(dp2
S'head'
p3
(ilinked_list
Node
p4
(dp5
S'skip'
p6
NsS'data'
p7
I18
sS'next'
p8
NsbsS'tail'
p9
g4
sS'size'
p10
I1
sb.(ilinked_list
LinkedList
p1
(dp2
S'head'
p3
(ilinked_list
Node
p4
(dp5
S'skip'
p6
NsS'data'
p7
I18
sS'next'
p8
NsbsS'tail'
p9
g4
sS'size'
p10
I1
sb.(ilinked_list
LinkedList
p1
(dp2
S'head'
p3
(ilinked_list
Node
p4
(dp5
S'skip'
p6
NsS'data'
p7
I18
sS'next'
p8
NsbsS'tail'
p9
g4
sS'size'
p10
I1
sb.(ilinked_list
LinkedList
p1
(dp2
S'head'
p3
(ilinked_list
Node
p4
(dp5
S'skip'
p6
NsS'data'
p7
I18
sS'next'
p8
NsbsS'tail'
p9
g4
sS'size'
p10
I1
sb.(ilinked_list
LinkedList
p1
(dp2
S'head'
p3
(ilinked_list
Node
p4
(dp5
S'skip'
p6
NsS'data'
p7
I18
sS'next'
p8
NsbsS'tail'
p9
g4
sS'size'
p10
I1
sb.(ilinked_list
LinkedList
p1
(dp2
S'head'
p3
(ilinked_list
Node
p4
(dp5
S'skip'
p6
NsS'data'
p7
I18
sS'next'
p8
NsbsS'tail'
p9
g4
sS'size'
p10
I1
sb.(ilinked_list
LinkedList
p1
(dp2
S'head'
p3
(ilinked_list
Node
p4
(dp5
S'skip'
p6
NsS'data'
p7
I18
sS'next'
p8
NsbsS'tail'
p9
g4
sS'size'
p10
I1
sb.(ilinked_list
LinkedList
p1
(dp2
S'head'
p3
(ilinked_list
Node
p4
(dp5
S'skip'
p6
NsS'data'
p7
I18
sS'next'
p8
NsbsS'tail'
p9
g4
sS'size'
p10
I1
sb.(ilinked_list
LinkedList
p1
(dp2
S'head'
p3
(ilinked_list
Node
p4
(dp5
S'skip'
p6
NsS'data'
p7
I18
sS'next'
p8
NsbsS'tail'
p9
g4
sS'size'
p10
I1
sb.